; ModuleID = 'AC_AttitudeControl_Multi.cpp.0.o'
source_filename = "../../libraries/AC_AttitudeControl/AC_AttitudeControl_Multi.cpp"
target datalayout = "e-m:e-p:32:32-Fi8-i64:64-v128:64:128-a:0:32-n32-S64"
target triple = "thumbv7em-none-unknown-eabihf"

%"struct.AP_Param::GroupInfo" = type { i8*, i32, %union.anon, i16, i8, i8 }
%union.anon = type { %"struct.AP_Param::GroupInfo"* }
%class.Vector3 = type { float, float, float }
%class.AC_AttitudeControl = type <{ i32 (...)**, %class.AP_ParamT, %class.AP_ParamT, %class.AP_ParamT, %class.AP_ParamT, %class.AP_ParamT, %class.AP_ParamT, %class.AP_ParamT, %class.AP_ParamT.0, %class.AP_ParamT.0, [2 x i8], %class.AC_P, %class.AC_P, %class.AC_P, %class.AP_ParamT, %class.AP_ParamT, float, %class.Vector3, %class.Vector3, %class.QuaternionT, %class.Vector3, %class.Vector3, %class.Vector3, %class.Vector3, %class.QuaternionT, float, float, float, float, i8, [3 x i8], float, float, float, float, float, float, %class.Vector3, %class.Vector3, %class.Vector3, %class.Vector3, %class.AP_AHRS_View*, %struct.AP_MultiCopter*, %class.AP_Motors*, %struct.anon.12, i8, [3 x i8] }>
%class.AP_ParamT.0 = type { i8 }
%class.AC_P = type { %class.AP_ParamT, float }
%class.AP_ParamT = type { float }
%class.QuaternionT = type { float, float, float, float }
%class.AP_AHRS_View = type { i32 (...)**, float, float, float, i32, i32, i32, i8, %class.AP_AHRS*, %class.Matrix3, %class.Matrix3, %class.Matrix3, %class.Vector3, %struct.anon.11, float, float }
%class.AP_AHRS = type <{ %class.NavEKF3, i32, i32, i32, float, float, float, %class.AP_AHRS_View*, i8, [3 x i8], %"class.ChibiOS::Semaphore", %class.AP_ParamT.0, %class.AP_ParamT.0, %class.AP_Enum.8, i8, %class.AP_ParamT, %class.AP_ParamT, %class.AP_ParamT, %class.AP_ParamT, %class.AP_Enum.9, %class.AP_ParamT.0, [2 x i8], float, float, float, float, float, float, i8, i8, i16, i32, i8, i8, [2 x i8], %class.Location, i8, [3 x i8], i32, float, float, i32, i8, [3 x i8], %class.AP_ParamV, %class.Vector3, %class.Matrix3, %class.Matrix3, i32, i8, [3 x i8], i32, i8, [3 x i8], i32, i8, i8, [2 x i8], %struct.anon.10, %class.AP_AHRS_DCM, %"struct.AP_AHRS_Backend::Estimates", %class.AP_AHRS_External, %"struct.AP_AHRS_Backend::Estimates", %class.AP_ParamT.1, [6 x i8] }>
%class.NavEKF3 = type <{ i8, i8, [2 x i8], %class.NavEKF3_core*, i32, i8, %class.AP_ParamT.0, [2 x i8], %class.AP_ParamT, %class.AP_ParamT, %class.AP_ParamT, %class.AP_ParamT, %class.AP_ParamT, %class.AP_ParamT, %class.AP_ParamT, %class.AP_ParamT, %class.AP_ParamT, %class.AP_ParamT, %class.AP_ParamT, %class.AP_ParamT, %class.AP_ParamT, %class.AP_ParamT, %class.AP_ParamT.1, %class.AP_ParamT.1, %class.AP_ParamT.1, %class.AP_ParamT.1, %class.AP_ParamT.1, %class.AP_ParamT.1, %class.AP_ParamT.0, %class.AP_ParamT.0, [2 x i8], %class.AP_ParamT, %class.AP_ParamT.1, %class.AP_ParamT.0, i8, %class.AP_ParamT.1, [2 x i8], %class.AP_ParamT, %class.AP_ParamT, %class.AP_ParamT.0, %class.AP_ParamT.0, %class.AP_ParamT.1, %class.AP_ParamT, %class.AP_ParamT, %class.AP_ParamT.1, %class.AP_ParamT.0, %class.AP_ParamT.0, %class.AP_ParamT, %class.AP_ParamT, %class.AP_ParamT.1, %class.AP_ParamT.0, i8, %class.AP_ParamT, %class.AP_ParamT, %class.AP_ParamT.0, %class.AP_ParamT.0, [2 x i8], %class.AP_ParamT, %class.AP_ParamT, %class.AP_ParamT, %class.AP_ParamT.0, [3 x i8], %class.AP_ParamT, %class.AP_ParamT.1, %class.AP_ParamT.0, %class.AP_ParamT.0, %class.AP_ParamT.0, [3 x i8], %class.AP_ParamT, %class.AP_ParamT.2, %class.AP_ParamT, %class.AP_ParamT, %class.AP_ParamT, %class.AP_ParamT, %class.AP_ParamT.0, [3 x i8], %class.AP_ParamT, %class.AP_ParamT, %class.AP_ParamT.0, %class.AP_Enum, [2 x i8], %class.AP_ParamT, float, float, float, float, i16, i16, i16, i16, i16, i16, i16, i16, i16, [2 x i8], i32, float, float, i16, i16, float, float, float, float, i8, [3 x i8], i32, float, i8, i8, i16, i8, i8, i8, i8, float, i16, [6 x i8], i64, i32, [4 x i8], i64, %struct.anon, %struct.anon.3, %struct.anon.4, i8, [3 x i8], [3 x i8], i8, [3 x float], [3 x float], [4 x i8], [3 x i64], %class.Location, i8, i8, %class.AP_NavEKF_Source, [2 x i8] }>
%class.NavEKF3_core = type opaque
%class.AP_ParamT.2 = type { i32 }
%class.AP_Enum = type { %class.AP_ParamT.0 }
%struct.anon = type { i32, i8, i32, float }
%struct.anon.3 = type { i32, i8, i32, %struct.Vector2 }
%struct.Vector2 = type { float, float }
%struct.anon.4 = type { i32, i8, i32, float }
%class.AP_NavEKF_Source = type { [3 x %"struct.AP_NavEKF_Source::SourceSet"], %class.AP_ParamT.1, i8, i8 }
%"struct.AP_NavEKF_Source::SourceSet" = type { %class.AP_Enum.5, %class.AP_Enum.5, %class.AP_Enum.6, %class.AP_Enum.6, %class.AP_Enum.7 }
%class.AP_Enum.5 = type { %class.AP_ParamT.0 }
%class.AP_Enum.6 = type { %class.AP_ParamT.0 }
%class.AP_Enum.7 = type { %class.AP_ParamT.0 }
%"class.ChibiOS::Semaphore" = type { %"class.AP_HAL::Semaphore", [5 x i32] }
%"class.AP_HAL::Semaphore" = type { i32 (...)** }
%class.AP_Enum.8 = type { %class.AP_ParamT.0 }
%class.AP_Enum.9 = type { %class.AP_ParamT.0 }
%class.Location = type { i8, i32, i32, i32 }
%class.AP_ParamV = type { %class.Vector3 }
%struct.anon.10 = type <{ i8, i8, i8, i8, i8, [3 x i8], %class.Vector3, %class.Matrix3, %class.Vector3, %class.Vector3, %class.Vector3, %class.Vector3, i8, [3 x i8], float, i8, [3 x i8], float, i8, i8, [2 x i8], float, %class.Vector3, i8, [3 x i8], %class.QuaternionT, i8, [3 x i8], %class.Vector3, i8, [3 x i8], %class.QuaternionT, i8, [3 x i8], %class.Location, i8, [3 x i8], %class.Location, i8, [3 x i8], %struct.Vector2, float, %class.Vector3, float, %class.Location, i8, [3 x i8], %class.Vector3, i8, [3 x i8] }>
%class.AP_AHRS_DCM = type { %class.AP_AHRS_Backend, %class.AP_ParamT*, %class.AP_ParamT*, %class.AP_ParamT*, %class.AP_ParamT*, %class.AP_ParamT.0*, %class.AP_Enum.9*, %class.Vector3, %class.Matrix3, %class.Matrix3, float, float, float, %class.Vector3, %class.Vector3, %class.Vector3, %class.Vector3, float, %class.Vector3, i8, [3 x %class.Vector3], float, i16, float, float, i32, i32, [3 x %class.Vector3], %class.Vector3, float, i32, i8, float, %struct.Vector2, i8, i32, i32, i32, float, float, i8, %class.Vector3, %class.Vector3, i32, float, i32, %class.Vector3, float, i32, i32, %class.Location, %struct.Vector2, %struct.Vector2, %struct.Vector2, float, float, i32 }
%class.AP_AHRS_Backend = type { i32 (...)** }
%class.AP_AHRS_External = type { %class.AP_AHRS_Backend }
%"struct.AP_AHRS_Backend::Estimates" = type <{ float, float, float, %class.Matrix3, %class.Vector3, %class.Vector3, %class.Vector3, %class.Vector3, %class.Location, i8, [3 x i8] }>
%class.AP_ParamT.1 = type { i16 }
%class.Matrix3 = type { %class.Vector3, %class.Vector3, %class.Vector3 }
%struct.anon.11 = type { float, float, float, float, float, float }
%struct.AP_MultiCopter = type { %class.AP_ParamT.1 }
%class.AP_Motors = type <{ i32 (...)**, %"struct.AP_Motors::AP_Motors_limit", [3 x i8], float, i16, [2 x i8], float, float, float, float, float, float, float, float, float, float, float, float, %class.LowPassFilter, %class.DerivativeFilter, %class.LowPassFilter, i8, i8, [2 x i8], i32, i32, float, float, float, float, %class.AP_ParamT.0, i8, i8, i8, float, %class.AP_ParamT.1, [2 x i8], i32, i8*, %"struct.AP_Motors::AP_Motors_limit", i8, i8, i8, i8, [3 x i8] }>
%class.DerivativeFilter = type { %class.FilterWithBuffer.base, i8, float, [7 x i32] }
%class.FilterWithBuffer.base = type <{ %class.Filter, [7 x float], i8 }>
%class.Filter = type { i32 (...)** }
%class.LowPassFilter = type { float, %class.DigitalLPF }
%class.DigitalLPF = type <{ float, float, i8, [3 x i8] }>
%"struct.AP_Motors::AP_Motors_limit" = type { i8, i8, i8, i8, i8 }
%struct.anon.12 = type { float, float, float, float, float }
%class.AC_AttitudeControl_Multi = type { %class.AC_AttitudeControl.base, %class.AP_MotorsMulticopter*, %class.AC_PID, %class.AC_PID, %class.AC_PID, %class.AP_ParamT, %class.AP_ParamT, %class.AP_ParamT, %class.AP_ParamT }
%class.AC_AttitudeControl.base = type <{ i32 (...)**, %class.AP_ParamT, %class.AP_ParamT, %class.AP_ParamT, %class.AP_ParamT, %class.AP_ParamT, %class.AP_ParamT, %class.AP_ParamT, %class.AP_ParamT.0, %class.AP_ParamT.0, [2 x i8], %class.AC_P, %class.AC_P, %class.AC_P, %class.AP_ParamT, %class.AP_ParamT, float, %class.Vector3, %class.Vector3, %class.QuaternionT, %class.Vector3, %class.Vector3, %class.Vector3, %class.Vector3, %class.QuaternionT, float, float, float, float, i8, [3 x i8], float, float, float, float, float, float, %class.Vector3, %class.Vector3, %class.Vector3, %class.Vector3, %class.AP_AHRS_View*, %struct.AP_MultiCopter*, %class.AP_Motors*, %struct.anon.12, i8 }>
%class.AC_PID = type { %class.AP_ParamT, %class.AP_ParamT, %class.AP_ParamT, %class.AP_ParamT, %class.AP_ParamT, %class.AP_ParamT, %class.AP_ParamT, %class.AP_ParamT, %class.AP_ParamT, %class.AP_ParamT, %class.AP_ParamT, %class.AP_ParamT.0, %class.AP_ParamT.0, %class.AP_ParamT, %class.SlewLimiter, %"struct.AC_PID::ac_pid_flags", float, float, float, float, i8, float, %class.NotchFilter*, %class.NotchFilter*, %struct.AP_PIDInfo, float, float, float, float, float, float, float, float, float, float }
%class.SlewLimiter = type <{ float*, float*, %class.LowPassFilter, float, float, float, float, float, i32, i32, i8, i8, [2 x i8], [2 x i32], [2 x i32], i8, i8, [2 x i8] }>
%"struct.AC_PID::ac_pid_flags" = type { i8 }
%class.NotchFilter = type opaque
%struct.AP_PIDInfo = type { float, float, float, float, float, float, float, float, float, float, i8, i8, i8, i8 }
%class.AP_MotorsMulticopter = type { %class.AP_Motors.base, %class.Thrust_Linearization, %class.AP_ParamT.1, %class.AP_ParamT, %class.AP_ParamT, %class.AP_ParamT, %class.AP_ParamT, %class.AP_ParamT, %class.AP_ParamT, %class.AP_ParamT.1, %class.AP_ParamT.1, %class.AP_ParamT, %class.AP_ParamT.0, %class.AP_ParamT.0, %class.AP_ParamT, %class.AP_ParamT, %class.AP_ParamT, %class.AP_ParamT, [12 x i8], float, float, float, float, %class.Functor, [12 x float] }
%class.AP_Motors.base = type <{ i32 (...)**, %"struct.AP_Motors::AP_Motors_limit", [3 x i8], float, i16, [2 x i8], float, float, float, float, float, float, float, float, float, float, float, float, %class.LowPassFilter, %class.DerivativeFilter, %class.LowPassFilter, i8, i8, [2 x i8], i32, i32, float, float, float, float, %class.AP_ParamT.0, i8, i8, i8, float, %class.AP_ParamT.1, [2 x i8], i32, i8*, %"struct.AP_Motors::AP_Motors_limit", i8, i8, i8, i8 }>
%class.Thrust_Linearization = type { %class.AP_ParamT, %class.AP_ParamT, %class.AP_ParamT, %class.AP_ParamT.0, %class.AP_ParamT, %class.AP_ParamT, float, float, %class.LowPassFilter, %class.AP_Motors* }
%class.Functor = type { i8*, void (i8*, float*, i8)* }
%"struct.AC_PID::Defaults" = type { float, float, float, float, float, float, float, float, float, float, float }
%class.AP_Scheduler = type { %"class.AP::PerfInfo", %class.AP_ParamT.0, %class.AP_ParamT.1, %class.AP_ParamT.1, %class.AP_ParamT.0, i16, float, %"struct.AP_Scheduler::Task"*, i8, %"struct.AP_Scheduler::Task"*, i8, i8, i16, i32, i16*, i32, i32, i32, i8, i32, float, i32, i8, i32, i32, i32, %"class.ChibiOS::Semaphore", [4 x i8] }
%"class.AP::PerfInfo" = type <{ i16, i16, i16, [2 x i8], i32, i32, i64, i64, i16, [2 x i8], i32, float, i8, i8, [2 x i8], %"struct.AP::PerfInfo::TaskInfo"*, [4 x i8] }>
%"struct.AP::PerfInfo::TaskInfo" = type { i16, i16, i32, i32, i16, i16 }
%"struct.AP_Scheduler::Task" = type <{ %class.Functor.13, i8*, float, i16, i8, i8 }>
%class.Functor.13 = type { i8*, void (i8*)* }

$_ZN18AC_AttitudeControlD2Ev = comdat any

$_ZN24AC_AttitudeControl_MultiD0Ev = comdat any

$_ZN24AC_AttitudeControl_Multi17get_rate_roll_pidEv = comdat any

$_ZN24AC_AttitudeControl_Multi18get_rate_pitch_pidEv = comdat any

$_ZN24AC_AttitudeControl_Multi16get_rate_yaw_pidEv = comdat any

$_ZNK24AC_AttitudeControl_Multi17get_rate_roll_pidEv = comdat any

$_ZNK24AC_AttitudeControl_Multi18get_rate_pitch_pidEv = comdat any

$_ZNK24AC_AttitudeControl_Multi16get_rate_yaw_pidEv = comdat any

$_ZN18AC_AttitudeControl26relax_attitude_controllersEb = comdat any

$_ZN18AC_AttitudeControl46input_euler_rate_yaw_euler_angle_pitch_bf_rollEbfff = comdat any

$_ZNK24AC_AttitudeControl_Multi19is_throttle_mix_minEv = comdat any

$_ZN24AC_AttitudeControl_Multi20set_throttle_mix_minEv = comdat any

$_ZN24AC_AttitudeControl_Multi20set_throttle_mix_manEv = comdat any

$_ZN24AC_AttitudeControl_Multi22set_throttle_mix_valueEf = comdat any

$_ZNK24AC_AttitudeControl_Multi16get_throttle_mixEv = comdat any

$_ZN18AC_AttitudeControl22use_flybar_passthroughEbb = comdat any

$_ZN18AC_AttitudeControl11use_leaky_iEb = comdat any

$_ZN18AC_AttitudeControl26set_hover_roll_trim_scalarEf = comdat any

$_ZN18AC_AttitudeControl16get_roll_trim_cdEv = comdat any

$_ZN18AC_AttitudeControl34passthrough_bf_roll_pitch_rate_yawEfff = comdat any

$_ZN18AC_AttitudeControl19set_inverted_flightEb = comdat any

$_ZN18AC_AttitudeControl17get_roll_trim_radEv = comdat any

@.str = private unnamed_addr constant [1 x i8] zeroinitializer, align 1
@_ZN18AC_AttitudeControl8var_infoE = external dso_local global [0 x %"struct.AP_Param::GroupInfo"], align 4
@.str.2 = private unnamed_addr constant [9 x i8] c"RAT_RLL_\00", align 1
@_ZN6AC_PID8var_infoE = external dso_local global [0 x %"struct.AP_Param::GroupInfo"], align 4
@.str.3 = private unnamed_addr constant [9 x i8] c"RAT_PIT_\00", align 1
@.str.4 = private unnamed_addr constant [9 x i8] c"RAT_YAW_\00", align 1
@.str.5 = private unnamed_addr constant [12 x i8] c"THR_MIX_MIN\00", align 1
@.str.6 = private unnamed_addr constant [12 x i8] c"THR_MIX_MAX\00", align 1
@.str.7 = private unnamed_addr constant [12 x i8] c"THR_MIX_MAN\00", align 1
@.str.8 = private unnamed_addr constant [12 x i8] c"THR_G_BOOST\00", align 1
@_ZN24AC_AttitudeControl_Multi8var_infoE = dso_local constant <{ %"struct.AP_Param::GroupInfo", %"struct.AP_Param::GroupInfo", %"struct.AP_Param::GroupInfo", %"struct.AP_Param::GroupInfo", { i8*, i32, { float }, i16, i8, i8 }, { i8*, i32, { float }, i16, i8, i8 }, { i8*, i32, { float }, i16, i8, i8 }, { i8*, i32, { float }, i16, i8, i8 }, %"struct.AP_Param::GroupInfo" }> <{ %"struct.AP_Param::GroupInfo" { i8* getelementptr inbounds ([1 x i8], [1 x i8]* @.str, i32 0, i32 0), i32 0, %union.anon { %"struct.AP_Param::GroupInfo"* getelementptr inbounds ([0 x %"struct.AP_Param::GroupInfo"], [0 x %"struct.AP_Param::GroupInfo"]* @_ZN18AC_AttitudeControl8var_infoE, i32 0, i32 0) }, i16 0, i8 0, i8 6 }, %"struct.AP_Param::GroupInfo" { i8* getelementptr inbounds ([9 x i8], [9 x i8]* @.str.2, i32 0, i32 0), i32 308, %union.anon { %"struct.AP_Param::GroupInfo"* getelementptr inbounds ([0 x %"struct.AP_Param::GroupInfo"], [0 x %"struct.AP_Param::GroupInfo"]* @_ZN6AC_PID8var_infoE, i32 0, i32 0) }, i16 1, i8 1, i8 6 }, %"struct.AP_Param::GroupInfo" { i8* getelementptr inbounds ([9 x i8], [9 x i8]* @.str.3, i32 0, i32 0), i32 556, %union.anon { %"struct.AP_Param::GroupInfo"* getelementptr inbounds ([0 x %"struct.AP_Param::GroupInfo"], [0 x %"struct.AP_Param::GroupInfo"]* @_ZN6AC_PID8var_infoE, i32 0, i32 0) }, i16 1, i8 2, i8 6 }, %"struct.AP_Param::GroupInfo" { i8* getelementptr inbounds ([9 x i8], [9 x i8]* @.str.4, i32 0, i32 0), i32 804, %union.anon { %"struct.AP_Param::GroupInfo"* getelementptr inbounds ([0 x %"struct.AP_Param::GroupInfo"], [0 x %"struct.AP_Param::GroupInfo"]* @_ZN6AC_PID8var_infoE, i32 0, i32 0) }, i16 1, i8 3, i8 6 }, { i8*, i32, { float }, i16, i8, i8 } { i8* getelementptr inbounds ([12 x i8], [12 x i8]* @.str.5, i32 0, i32 0), i32 1056, { float } { float 0x3FB99999A0000000 }, i16 0, i8 4, i8 4 }, { i8*, i32, { float }, i16, i8, i8 } { i8* getelementptr inbounds ([12 x i8], [12 x i8]* @.str.6, i32 0, i32 0), i32 1060, { float } { float 5.000000e-01 }, i16 0, i8 5, i8 4 }, { i8*, i32, { float }, i16, i8, i8 } { i8* getelementptr inbounds ([12 x i8], [12 x i8]* @.str.7, i32 0, i32 0), i32 1052, { float } { float 0x3FB99999A0000000 }, i16 0, i8 6, i8 4 }, { i8*, i32, { float }, i16, i8, i8 } { i8* getelementptr inbounds ([12 x i8], [12 x i8]* @.str.8, i32 0, i32 0), i32 1064, { float } zeroinitializer, i16 0, i8 7, i8 4 }, %"struct.AP_Param::GroupInfo" { i8* getelementptr inbounds ([1 x i8], [1 x i8]* @.str, i32 0, i32 0), i32 0, %union.anon zeroinitializer, i16 0, i8 -1, i8 0 } }>, align 4, !dbg !0
@_ZTV24AC_AttitudeControl_Multi = dso_local unnamed_addr constant { [41 x i8*] } { [41 x i8*] [i8* null, i8* null, i8* bitcast (%class.AC_AttitudeControl* (%class.AC_AttitudeControl*)* @_ZN18AC_AttitudeControlD2Ev to i8*), i8* bitcast (void (%class.AC_AttitudeControl_Multi*)* @_ZN24AC_AttitudeControl_MultiD0Ev to i8*), i8* bitcast (%class.AC_PID* (%class.AC_AttitudeControl_Multi*)* @_ZN24AC_AttitudeControl_Multi17get_rate_roll_pidEv to i8*), i8* bitcast (%class.AC_PID* (%class.AC_AttitudeControl_Multi*)* @_ZN24AC_AttitudeControl_Multi18get_rate_pitch_pidEv to i8*), i8* bitcast (%class.AC_PID* (%class.AC_AttitudeControl_Multi*)* @_ZN24AC_AttitudeControl_Multi16get_rate_yaw_pidEv to i8*), i8* bitcast (%class.AC_PID* (%class.AC_AttitudeControl_Multi*)* @_ZNK24AC_AttitudeControl_Multi17get_rate_roll_pidEv to i8*), i8* bitcast (%class.AC_PID* (%class.AC_AttitudeControl_Multi*)* @_ZNK24AC_AttitudeControl_Multi18get_rate_pitch_pidEv to i8*), i8* bitcast (%class.AC_PID* (%class.AC_AttitudeControl_Multi*)* @_ZNK24AC_AttitudeControl_Multi16get_rate_yaw_pidEv to i8*), i8* bitcast (void (%class.AC_AttitudeControl*, i1)* @_ZN18AC_AttitudeControl26relax_attitude_controllersEb to i8*), i8* bitcast (void (%class.AC_AttitudeControl*, %class.QuaternionT*, %class.Vector3)* @_ZN18AC_AttitudeControl16input_quaternionER11QuaternionTIfE7Vector3IfE to i8*), i8* bitcast (void (%class.AC_AttitudeControl*, float, float, float)* @_ZN18AC_AttitudeControl43input_euler_angle_roll_pitch_euler_rate_yawEfff to i8*), i8* bitcast (void (%class.AC_AttitudeControl*, float, float, float, i1)* @_ZN18AC_AttitudeControl32input_euler_angle_roll_pitch_yawEfffb to i8*), i8* bitcast (void (%class.AC_AttitudeControl*, i1, float, float, float)* @_ZN18AC_AttitudeControl46input_euler_rate_yaw_euler_angle_pitch_bf_rollEbfff to i8*), i8* bitcast (void (%class.AC_AttitudeControl*, float, float, float)* @_ZN18AC_AttitudeControl31input_euler_rate_roll_pitch_yawEfff to i8*), i8* bitcast (void (%class.AC_AttitudeControl*, float, float, float)* @_ZN18AC_AttitudeControl28input_rate_bf_roll_pitch_yawEfff to i8*), i8* bitcast (void (%class.AC_AttitudeControl*, float, float, float)* @_ZN18AC_AttitudeControl30input_rate_bf_roll_pitch_yaw_2Efff to i8*), i8* bitcast (void (%class.AC_AttitudeControl*, float, float, float)* @_ZN18AC_AttitudeControl30input_rate_bf_roll_pitch_yaw_3Efff to i8*), i8* bitcast (void (%class.AC_AttitudeControl*, float, float, float)* @_ZN18AC_AttitudeControl34input_angle_step_bf_roll_pitch_yawEfff to i8*), i8* bitcast (void (%class.AC_AttitudeControl*, %class.Vector3*, float, i1)* @_ZN18AC_AttitudeControl32input_thrust_vector_rate_headingERK7Vector3IfEfb to i8*), i8* bitcast (void (%class.AC_AttitudeControl*, %class.Vector3*, float, float)* @_ZN18AC_AttitudeControl27input_thrust_vector_headingERK7Vector3IfEff to i8*), i8* bitcast (void (%class.AC_AttitudeControl_Multi*)* @_ZN24AC_AttitudeControl_Multi19rate_controller_runEv to i8*), i8* bitcast (void (%class.AC_AttitudeControl_Multi*, float)* @_ZN24AC_AttitudeControl_Multi29update_althold_lean_angle_maxEf to i8*), i8* bitcast (void (%class.AC_AttitudeControl_Multi*, float, i1, float)* @_ZN24AC_AttitudeControl_Multi16set_throttle_outEfbf to i8*), i8* bitcast (float (%class.AC_AttitudeControl*)* @_ZNK18AC_AttitudeControl29get_althold_lean_angle_max_cdEv to i8*), i8* bitcast (void (%class.AC_AttitudeControl_Multi*)* @_ZN24AC_AttitudeControl_Multi22parameter_sanity_checkEv to i8*), i8* bitcast (void (%class.AC_AttitudeControl_Multi*, float)* @_ZN24AC_AttitudeControl_Multi21set_notch_sample_rateEf to i8*), i8* bitcast (i1 (%class.AC_AttitudeControl_Multi*)* @_ZNK24AC_AttitudeControl_Multi19is_throttle_mix_minEv to i8*), i8* bitcast (void (%class.AC_AttitudeControl_Multi*)* @_ZN24AC_AttitudeControl_Multi20set_throttle_mix_minEv to i8*), i8* bitcast (void (%class.AC_AttitudeControl_Multi*)* @_ZN24AC_AttitudeControl_Multi20set_throttle_mix_manEv to i8*), i8* bitcast (void (%class.AC_AttitudeControl_Multi*, float)* @_ZN24AC_AttitudeControl_Multi20set_throttle_mix_maxEf to i8*), i8* bitcast (void (%class.AC_AttitudeControl_Multi*, float)* @_ZN24AC_AttitudeControl_Multi22set_throttle_mix_valueEf to i8*), i8* bitcast (float (%class.AC_AttitudeControl_Multi*)* @_ZNK24AC_AttitudeControl_Multi16get_throttle_mixEv to i8*), i8* bitcast (void (%class.AC_AttitudeControl*, i1, i1)* @_ZN18AC_AttitudeControl22use_flybar_passthroughEbb to i8*), i8* bitcast (void (%class.AC_AttitudeControl*, i1)* @_ZN18AC_AttitudeControl11use_leaky_iEb to i8*), i8* bitcast (void (%class.AC_AttitudeControl*, float)* @_ZN18AC_AttitudeControl26set_hover_roll_trim_scalarEf to i8*), i8* bitcast (float (%class.AC_AttitudeControl*)* @_ZN18AC_AttitudeControl16get_roll_trim_cdEv to i8*), i8* bitcast (void (%class.AC_AttitudeControl*, float, float, float)* @_ZN18AC_AttitudeControl34passthrough_bf_roll_pitch_rate_yawEfff to i8*), i8* bitcast (void (%class.AC_AttitudeControl*, i1)* @_ZN18AC_AttitudeControl19set_inverted_flightEb to i8*), i8* bitcast (float (%class.AC_AttitudeControl*)* @_ZN18AC_AttitudeControl17get_roll_trim_radEv to i8*)] }, align 4
@_ZN18AC_AttitudeControl11VECTORF_111E = external dso_local local_unnamed_addr constant %class.Vector3, align 4
@_ZTV18AC_AttitudeControl = external dso_local unnamed_addr constant { [41 x i8*] }, align 4
@_ZN18AC_AttitudeControl10_singletonE = external dso_local local_unnamed_addr global %class.AC_AttitudeControl*, align 4
@_ZN4AC_P8var_infoE = external dso_local global [0 x %"struct.AP_Param::GroupInfo"], align 4
@llvm.global_ctors = appending global [0 x { i32, void ()*, i8* }] zeroinitializer

@_ZN24AC_AttitudeControl_MultiC1ER12AP_AHRS_ViewRK14AP_MultiCopterR20AP_MotorsMulticopter = dso_local unnamed_addr alias %class.AC_AttitudeControl_Multi* (%class.AC_AttitudeControl_Multi*, %class.AP_AHRS_View*, %struct.AP_MultiCopter*, %class.AP_MotorsMulticopter*), %class.AC_AttitudeControl_Multi* (%class.AC_AttitudeControl_Multi*, %class.AP_AHRS_View*, %struct.AP_MultiCopter*, %class.AP_MotorsMulticopter*)* @_ZN24AC_AttitudeControl_MultiC2ER12AP_AHRS_ViewRK14AP_MultiCopterR20AP_MotorsMulticopter

; Function Attrs: nounwind
define dso_local %class.AC_AttitudeControl_Multi* @_ZN24AC_AttitudeControl_MultiC2ER12AP_AHRS_ViewRK14AP_MultiCopterR20AP_MotorsMulticopter(%class.AC_AttitudeControl_Multi* nonnull returned dereferenceable(1068) %this, %class.AP_AHRS_View* nonnull align 4 dereferenceable(188) %ahrs, %struct.AP_MultiCopter* nonnull align 2 dereferenceable(2) %aparm, %class.AP_MotorsMulticopter* nonnull align 4 dereferenceable(420) %motors) unnamed_addr #0 align 16 !dbg !1679 {
entry:
  call void @llvm.dbg.value(metadata %class.AC_AttitudeControl_Multi* %this, metadata !1681, metadata !DIExpression()), !dbg !1686
  call void @llvm.dbg.value(metadata %class.AP_AHRS_View* %ahrs, metadata !1683, metadata !DIExpression()), !dbg !1686
  call void @llvm.dbg.value(metadata %struct.AP_MultiCopter* %aparm, metadata !1684, metadata !DIExpression()), !dbg !1686
  call void @llvm.dbg.value(metadata %class.AP_MotorsMulticopter* %motors, metadata !1685, metadata !DIExpression()), !dbg !1686
  call void @llvm.dbg.value(metadata %class.AC_AttitudeControl_Multi* %this, metadata !1687, metadata !DIExpression()) #11, !dbg !1701
  call void @llvm.dbg.value(metadata %class.AP_AHRS_View* %ahrs, metadata !1697, metadata !DIExpression()) #11, !dbg !1701
  call void @llvm.dbg.value(metadata %struct.AP_MultiCopter* %aparm, metadata !1698, metadata !DIExpression()) #11, !dbg !1701
  call void @llvm.dbg.value(metadata %class.AP_MotorsMulticopter* %motors, metadata !1699, metadata !DIExpression()) #11, !dbg !1701
  %0 = getelementptr inbounds %class.AC_AttitudeControl_Multi, %class.AC_AttitudeControl_Multi* %this, i32 0, i32 0, i32 0, !dbg !1703
  store i32 (...)** bitcast (i8** getelementptr inbounds ({ [41 x i8*] }, { [41 x i8*] }* @_ZTV18AC_AttitudeControl, i32 0, inrange i32 0, i32 2) to i32 (...)**), i32 (...)*** %0, align 4, !dbg !1703
  %1 = getelementptr inbounds %class.AC_AttitudeControl_Multi, %class.AC_AttitudeControl_Multi* %this, i32 0, i32 0, i32 11, !dbg !1704
  call void @llvm.dbg.value(metadata %class.AC_P* %1, metadata !1705, metadata !DIExpression()) #11, !dbg !1747
  call void @llvm.dbg.value(metadata float* undef, metadata !1745, metadata !DIExpression()) #11, !dbg !1747
  %2 = getelementptr inbounds %class.AC_AttitudeControl_Multi, %class.AC_AttitudeControl_Multi* %this, i32 0, i32 0, i32 11, i32 1, !dbg !1749
  store float 4.500000e+00, float* %2, align 4, !dbg !1749
  %3 = bitcast %class.AC_P* %1 to i8*, !dbg !1750
  tail call void @_ZN8AP_Param21setup_object_defaultsEPKvPKNS_9GroupInfoE(i8* nonnull %3, %"struct.AP_Param::GroupInfo"* getelementptr inbounds ([0 x %"struct.AP_Param::GroupInfo"], [0 x %"struct.AP_Param::GroupInfo"]* @_ZN4AC_P8var_infoE, i32 0, i32 0)) #12, !dbg !1752
  %4 = getelementptr inbounds %class.AC_AttitudeControl_Multi, %class.AC_AttitudeControl_Multi* %this, i32 0, i32 0, i32 12, !dbg !1753
  call void @llvm.dbg.value(metadata %class.AC_P* %4, metadata !1705, metadata !DIExpression()) #11, !dbg !1754
  call void @llvm.dbg.value(metadata float* undef, metadata !1745, metadata !DIExpression()) #11, !dbg !1754
  %5 = getelementptr inbounds %class.AC_AttitudeControl_Multi, %class.AC_AttitudeControl_Multi* %this, i32 0, i32 0, i32 12, i32 1, !dbg !1756
  store float 4.500000e+00, float* %5, align 4, !dbg !1756
  %6 = bitcast %class.AC_P* %4 to i8*, !dbg !1757
  tail call void @_ZN8AP_Param21setup_object_defaultsEPKvPKNS_9GroupInfoE(i8* nonnull %6, %"struct.AP_Param::GroupInfo"* getelementptr inbounds ([0 x %"struct.AP_Param::GroupInfo"], [0 x %"struct.AP_Param::GroupInfo"]* @_ZN4AC_P8var_infoE, i32 0, i32 0)) #12, !dbg !1758
  %7 = getelementptr inbounds %class.AC_AttitudeControl_Multi, %class.AC_AttitudeControl_Multi* %this, i32 0, i32 0, i32 13, !dbg !1759
  call void @llvm.dbg.value(metadata %class.AC_P* %7, metadata !1705, metadata !DIExpression()) #11, !dbg !1760
  call void @llvm.dbg.value(metadata float* undef, metadata !1745, metadata !DIExpression()) #11, !dbg !1760
  %8 = getelementptr inbounds %class.AC_AttitudeControl_Multi, %class.AC_AttitudeControl_Multi* %this, i32 0, i32 0, i32 13, i32 1, !dbg !1762
  store float 4.500000e+00, float* %8, align 4, !dbg !1762
  %9 = bitcast %class.AC_P* %7 to i8*, !dbg !1763
  tail call void @_ZN8AP_Param21setup_object_defaultsEPKvPKNS_9GroupInfoE(i8* nonnull %9, %"struct.AP_Param::GroupInfo"* getelementptr inbounds ([0 x %"struct.AP_Param::GroupInfo"], [0 x %"struct.AP_Param::GroupInfo"]* @_ZN4AC_P8var_infoE, i32 0, i32 0)) #12, !dbg !1764
  call void @llvm.dbg.value(metadata %class.AC_AttitudeControl_Multi* %this, metadata !1765, metadata !DIExpression(DW_OP_plus_uconst, 72, DW_OP_stack_value)) #11, !dbg !2437
  %10 = getelementptr inbounds %class.AC_AttitudeControl_Multi, %class.AC_AttitudeControl_Multi* %this, i32 0, i32 0, i32 17, i32 0, !dbg !2439
  call void @llvm.dbg.value(metadata %class.AC_AttitudeControl_Multi* %this, metadata !1765, metadata !DIExpression(DW_OP_plus_uconst, 84, DW_OP_stack_value)) #11, !dbg !2440
  call void @llvm.dbg.value(metadata %class.AC_AttitudeControl_Multi* %this, metadata !2442, metadata !DIExpression(DW_OP_plus_uconst, 96, DW_OP_stack_value)) #11, !dbg !2687
  %11 = getelementptr inbounds %class.AC_AttitudeControl_Multi, %class.AC_AttitudeControl_Multi* %this, i32 0, i32 0, i32 19, i32 0, !dbg !2689
  %12 = bitcast float* %10 to i8*, !dbg !2691
  tail call void @llvm.memset.p0i8.i64(i8* nonnull align 4 dereferenceable(24) %12, i8 0, i64 24, i1 false) #11, !dbg !2692
  store float 1.000000e+00, float* %11, align 4, !dbg !2691
  %13 = getelementptr inbounds %class.AC_AttitudeControl_Multi, %class.AC_AttitudeControl_Multi* %this, i32 0, i32 0, i32 19, i32 1, !dbg !2693
  call void @llvm.dbg.value(metadata %class.AC_AttitudeControl_Multi* %this, metadata !1765, metadata !DIExpression(DW_OP_plus_uconst, 112, DW_OP_stack_value)) #11, !dbg !2694
  call void @llvm.dbg.value(metadata %class.AC_AttitudeControl_Multi* %this, metadata !1765, metadata !DIExpression(DW_OP_plus_uconst, 124, DW_OP_stack_value)) #11, !dbg !2696
  call void @llvm.dbg.value(metadata %class.AC_AttitudeControl_Multi* %this, metadata !1765, metadata !DIExpression(DW_OP_plus_uconst, 136, DW_OP_stack_value)) #11, !dbg !2698
  call void @llvm.dbg.value(metadata %class.AC_AttitudeControl_Multi* %this, metadata !1765, metadata !DIExpression(DW_OP_plus_uconst, 148, DW_OP_stack_value)) #11, !dbg !2700
  call void @llvm.dbg.value(metadata %class.AC_AttitudeControl_Multi* %this, metadata !2442, metadata !DIExpression(DW_OP_plus_uconst, 160, DW_OP_stack_value)) #11, !dbg !2702
  %14 = getelementptr inbounds %class.AC_AttitudeControl_Multi, %class.AC_AttitudeControl_Multi* %this, i32 0, i32 0, i32 24, i32 0, !dbg !2704
  %15 = bitcast float* %13 to i8*, !dbg !2705
  tail call void @llvm.memset.p0i8.i64(i8* nonnull align 4 dereferenceable(60) %15, i8 0, i64 60, i1 false) #11, !dbg !2706
  store float 1.000000e+00, float* %14, align 4, !dbg !2705
  %16 = getelementptr inbounds %class.AC_AttitudeControl_Multi, %class.AC_AttitudeControl_Multi* %this, i32 0, i32 0, i32 24, i32 3, !dbg !2707
  store float 0.000000e+00, float* %16, align 4, !dbg !2708
  %17 = getelementptr inbounds %class.AC_AttitudeControl_Multi, %class.AC_AttitudeControl_Multi* %this, i32 0, i32 0, i32 24, i32 2, !dbg !2709
  store float 0.000000e+00, float* %17, align 4, !dbg !2710
  %18 = getelementptr inbounds %class.AC_AttitudeControl_Multi, %class.AC_AttitudeControl_Multi* %this, i32 0, i32 0, i32 24, i32 1, !dbg !2711
  store float 0.000000e+00, float* %18, align 4, !dbg !2712
  %19 = getelementptr inbounds %class.AC_AttitudeControl_Multi, %class.AC_AttitudeControl_Multi* %this, i32 0, i32 0, i32 27, !dbg !2713
  store float 0.000000e+00, float* %19, align 4, !dbg !2713
  %20 = getelementptr inbounds %class.AC_AttitudeControl_Multi, %class.AC_AttitudeControl_Multi* %this, i32 0, i32 0, i32 28, !dbg !2714
  store float 0.000000e+00, float* %20, align 4, !dbg !2714
  %21 = getelementptr inbounds %class.AC_AttitudeControl_Multi, %class.AC_AttitudeControl_Multi* %this, i32 0, i32 0, i32 29, !dbg !2715
  store i8 1, i8* %21, align 4, !dbg !2715
  %22 = getelementptr inbounds %class.AC_AttitudeControl_Multi, %class.AC_AttitudeControl_Multi* %this, i32 0, i32 0, i32 31, !dbg !2716
  store float 0.000000e+00, float* %22, align 4, !dbg !2716
  %23 = getelementptr inbounds %class.AC_AttitudeControl_Multi, %class.AC_AttitudeControl_Multi* %this, i32 0, i32 0, i32 32, !dbg !2717
  store float 5.000000e-01, float* %23, align 4, !dbg !2717
  %24 = getelementptr inbounds %class.AC_AttitudeControl_Multi, %class.AC_AttitudeControl_Multi* %this, i32 0, i32 0, i32 33, !dbg !2718
  store float 5.000000e-01, float* %24, align 4, !dbg !2718
  %25 = getelementptr inbounds %class.AC_AttitudeControl_Multi, %class.AC_AttitudeControl_Multi* %this, i32 0, i32 0, i32 34, !dbg !2719
  store float 1.000000e+00, float* %25, align 4, !dbg !2719
  call void @llvm.dbg.value(metadata %class.AC_AttitudeControl_Multi* %this, metadata !2720, metadata !DIExpression(DW_OP_plus_uconst, 220, DW_OP_stack_value)) #11, !dbg !2726
  call void @llvm.dbg.value(metadata float 1.000000e+00, metadata !2723, metadata !DIExpression()) #11, !dbg !2726
  call void @llvm.dbg.value(metadata float 1.000000e+00, metadata !2724, metadata !DIExpression()) #11, !dbg !2726
  call void @llvm.dbg.value(metadata float 1.000000e+00, metadata !2725, metadata !DIExpression()) #11, !dbg !2726
  %26 = getelementptr inbounds %class.AC_AttitudeControl_Multi, %class.AC_AttitudeControl_Multi* %this, i32 0, i32 0, i32 37, i32 0, !dbg !2728
  store float 1.000000e+00, float* %26, align 4, !dbg !2728
  %27 = getelementptr inbounds %class.AC_AttitudeControl_Multi, %class.AC_AttitudeControl_Multi* %this, i32 0, i32 0, i32 37, i32 1, !dbg !2729
  store float 1.000000e+00, float* %27, align 4, !dbg !2729
  %28 = getelementptr inbounds %class.AC_AttitudeControl_Multi, %class.AC_AttitudeControl_Multi* %this, i32 0, i32 0, i32 37, i32 2, !dbg !2730
  store float 1.000000e+00, float* %28, align 4, !dbg !2730
  call void @llvm.dbg.value(metadata %class.AC_AttitudeControl_Multi* %this, metadata !1765, metadata !DIExpression(DW_OP_plus_uconst, 232, DW_OP_stack_value)) #11, !dbg !2731
  %29 = getelementptr inbounds %class.AC_AttitudeControl_Multi, %class.AC_AttitudeControl_Multi* %this, i32 0, i32 0, i32 38, i32 0, !dbg !2733
  store float 0.000000e+00, float* %29, align 4, !dbg !2733
  %30 = getelementptr inbounds %class.AC_AttitudeControl_Multi, %class.AC_AttitudeControl_Multi* %this, i32 0, i32 0, i32 38, i32 1, !dbg !2734
  store float 0.000000e+00, float* %30, align 4, !dbg !2734
  %31 = getelementptr inbounds %class.AC_AttitudeControl_Multi, %class.AC_AttitudeControl_Multi* %this, i32 0, i32 0, i32 38, i32 2, !dbg !2735
  store float 0.000000e+00, float* %31, align 4, !dbg !2735
  call void @llvm.dbg.value(metadata %class.AC_AttitudeControl_Multi* %this, metadata !2720, metadata !DIExpression(DW_OP_plus_uconst, 244, DW_OP_stack_value)) #11, !dbg !2736
  call void @llvm.dbg.value(metadata float 1.000000e+00, metadata !2723, metadata !DIExpression()) #11, !dbg !2736
  call void @llvm.dbg.value(metadata float 1.000000e+00, metadata !2724, metadata !DIExpression()) #11, !dbg !2736
  call void @llvm.dbg.value(metadata float 1.000000e+00, metadata !2725, metadata !DIExpression()) #11, !dbg !2736
  %32 = getelementptr inbounds %class.AC_AttitudeControl_Multi, %class.AC_AttitudeControl_Multi* %this, i32 0, i32 0, i32 39, i32 0, !dbg !2738
  store float 1.000000e+00, float* %32, align 4, !dbg !2738
  %33 = getelementptr inbounds %class.AC_AttitudeControl_Multi, %class.AC_AttitudeControl_Multi* %this, i32 0, i32 0, i32 39, i32 1, !dbg !2739
  store float 1.000000e+00, float* %33, align 4, !dbg !2739
  %34 = getelementptr inbounds %class.AC_AttitudeControl_Multi, %class.AC_AttitudeControl_Multi* %this, i32 0, i32 0, i32 39, i32 2, !dbg !2740
  store float 1.000000e+00, float* %34, align 4, !dbg !2740
  call void @llvm.dbg.value(metadata %class.AC_AttitudeControl_Multi* %this, metadata !1765, metadata !DIExpression(DW_OP_plus_uconst, 256, DW_OP_stack_value)) #11, !dbg !2741
  %35 = getelementptr inbounds %class.AC_AttitudeControl_Multi, %class.AC_AttitudeControl_Multi* %this, i32 0, i32 0, i32 40, i32 0, !dbg !2743
  store float 0.000000e+00, float* %35, align 4, !dbg !2743
  %36 = getelementptr inbounds %class.AC_AttitudeControl_Multi, %class.AC_AttitudeControl_Multi* %this, i32 0, i32 0, i32 40, i32 1, !dbg !2744
  store float 0.000000e+00, float* %36, align 4, !dbg !2744
  %37 = getelementptr inbounds %class.AC_AttitudeControl_Multi, %class.AC_AttitudeControl_Multi* %this, i32 0, i32 0, i32 40, i32 2, !dbg !2745
  store float 0.000000e+00, float* %37, align 4, !dbg !2745
  %38 = getelementptr inbounds %class.AC_AttitudeControl_Multi, %class.AC_AttitudeControl_Multi* %this, i32 0, i32 0, i32 41, !dbg !2746
  store %class.AP_AHRS_View* %ahrs, %class.AP_AHRS_View** %38, align 4, !dbg !2746
  %39 = getelementptr inbounds %class.AC_AttitudeControl_Multi, %class.AC_AttitudeControl_Multi* %this, i32 0, i32 0, i32 42, !dbg !2747
  store %struct.AP_MultiCopter* %aparm, %struct.AP_MultiCopter** %39, align 4, !dbg !2747
  %40 = getelementptr inbounds %class.AC_AttitudeControl_Multi, %class.AC_AttitudeControl_Multi* %this, i32 0, i32 0, i32 43, !dbg !2748
  %41 = bitcast %class.AP_Motors** %40 to %class.AP_MotorsMulticopter**, !dbg !2748
  store %class.AP_MotorsMulticopter* %motors, %class.AP_MotorsMulticopter** %41, align 4, !dbg !2748
  store %class.AC_AttitudeControl_Multi* %this, %class.AC_AttitudeControl_Multi** bitcast (%class.AC_AttitudeControl** @_ZN18AC_AttitudeControl10_singletonE to %class.AC_AttitudeControl_Multi**), align 4, !dbg !2749
  %42 = bitcast %class.AC_AttitudeControl_Multi* %this to i8*, !dbg !2751
  tail call void @_ZN8AP_Param21setup_object_defaultsEPKvPKNS_9GroupInfoE(i8* nonnull %42, %"struct.AP_Param::GroupInfo"* getelementptr inbounds ([0 x %"struct.AP_Param::GroupInfo"], [0 x %"struct.AP_Param::GroupInfo"]* @_ZN18AC_AttitudeControl8var_infoE, i32 0, i32 0)) #12, !dbg !2752
  store i32 (...)** bitcast (i8** getelementptr inbounds ({ [41 x i8*] }, { [41 x i8*] }* @_ZTV24AC_AttitudeControl_Multi, i32 0, inrange i32 0, i32 2) to i32 (...)**), i32 (...)*** %0, align 4, !dbg !2753
  %_motors_multi = getelementptr inbounds %class.AC_AttitudeControl_Multi, %class.AC_AttitudeControl_Multi* %this, i32 0, i32 1, !dbg !2754
  store %class.AP_MotorsMulticopter* %motors, %class.AP_MotorsMulticopter** %_motors_multi, align 4, !dbg !2754
  %_pid_rate_roll = getelementptr inbounds %class.AC_AttitudeControl_Multi, %class.AC_AttitudeControl_Multi* %this, i32 0, i32 2, !dbg !2755
  call void @llvm.dbg.value(metadata %class.AC_PID* %_pid_rate_roll, metadata !2757, metadata !DIExpression()) #11, !dbg !2762
  call void @llvm.dbg.value(metadata %"struct.AC_PID::Defaults"* undef, metadata !2760, metadata !DIExpression()) #11, !dbg !2762
  %call.i = tail call %class.AC_PID* @_ZN6AC_PIDC2Efffffffffff(%class.AC_PID* nonnull dereferenceable(248) %_pid_rate_roll, float 0x3FC147AE20000000, float 0x3FC147AE20000000, float 0x3F6D7DBF40000000, float 0.000000e+00, float 5.000000e-01, float 2.000000e+01, float 0.000000e+00, float 2.000000e+01, float 0.000000e+00, float 1.000000e+00, float 0.000000e+00) #12, !dbg !2764
  %_pid_rate_pitch = getelementptr inbounds %class.AC_AttitudeControl_Multi, %class.AC_AttitudeControl_Multi* %this, i32 0, i32 3, !dbg !2765
  call void @llvm.dbg.value(metadata %class.AC_PID* %_pid_rate_pitch, metadata !2757, metadata !DIExpression()) #11, !dbg !2766
  call void @llvm.dbg.value(metadata %"struct.AC_PID::Defaults"* undef, metadata !2760, metadata !DIExpression()) #11, !dbg !2766
  %call.i47 = tail call %class.AC_PID* @_ZN6AC_PIDC2Efffffffffff(%class.AC_PID* nonnull dereferenceable(248) %_pid_rate_pitch, float 0x3FC147AE20000000, float 0x3FC147AE20000000, float 0x3F6D7DBF40000000, float 0.000000e+00, float 5.000000e-01, float 2.000000e+01, float 0.000000e+00, float 2.000000e+01, float 0.000000e+00, float 1.000000e+00, float 0.000000e+00) #12, !dbg !2768
  %_pid_rate_yaw = getelementptr inbounds %class.AC_AttitudeControl_Multi, %class.AC_AttitudeControl_Multi* %this, i32 0, i32 4, !dbg !2769
  call void @llvm.dbg.value(metadata %class.AC_PID* %_pid_rate_yaw, metadata !2757, metadata !DIExpression()) #11, !dbg !2770
  call void @llvm.dbg.value(metadata %"struct.AC_PID::Defaults"* undef, metadata !2760, metadata !DIExpression()) #11, !dbg !2770
  %call.i59 = tail call %class.AC_PID* @_ZN6AC_PIDC2Efffffffffff(%class.AC_PID* nonnull dereferenceable(248) %_pid_rate_yaw, float 0x3FC70A3D80000000, float 0x3F926E9780000000, float 0.000000e+00, float 0.000000e+00, float 5.000000e-01, float 2.000000e+01, float 2.500000e+00, float 0.000000e+00, float 0.000000e+00, float 1.000000e+00, float 0.000000e+00) #12, !dbg !2772
  tail call void @_ZN8AP_Param21setup_object_defaultsEPKvPKNS_9GroupInfoE(i8* nonnull %42, %"struct.AP_Param::GroupInfo"* getelementptr inbounds (<{ %"struct.AP_Param::GroupInfo", %"struct.AP_Param::GroupInfo", %"struct.AP_Param::GroupInfo", %"struct.AP_Param::GroupInfo", { i8*, i32, { float }, i16, i8, i8 }, { i8*, i32, { float }, i16, i8, i8 }, { i8*, i32, { float }, i16, i8, i8 }, { i8*, i32, { float }, i16, i8, i8 }, %"struct.AP_Param::GroupInfo" }>, <{ %"struct.AP_Param::GroupInfo", %"struct.AP_Param::GroupInfo", %"struct.AP_Param::GroupInfo", %"struct.AP_Param::GroupInfo", { i8*, i32, { float }, i16, i8, i8 }, { i8*, i32, { float }, i16, i8, i8 }, { i8*, i32, { float }, i16, i8, i8 }, { i8*, i32, { float }, i16, i8, i8 }, %"struct.AP_Param::GroupInfo" }>* @_ZN24AC_AttitudeControl_Multi8var_infoE, i32 0, i32 0)) #12, !dbg !2773
  %call33 = tail call nonnull align 8 dereferenceable(164) %class.AP_Scheduler* @_ZN2AP9schedulerEv() #12, !dbg !2776
  call void @llvm.dbg.value(metadata %class.AP_Scheduler* %call33, metadata !2777, metadata !DIExpression()), !dbg !2968
  call void @llvm.dbg.value(metadata %class.AP_Scheduler* %call33, metadata !2970, metadata !DIExpression(DW_OP_plus_uconst, 60, DW_OP_stack_value)), !dbg !2974
  %_value.i.i = getelementptr inbounds %class.AP_Scheduler, %class.AP_Scheduler* %call33, i32 0, i32 3, i32 0, !dbg !2977
  %43 = load i16, i16* %_value.i.i, align 4, !dbg !2978
  %cmp.i = icmp eq i16 %43, 0, !dbg !2979
  br i1 %cmp.i, label %if.then.i, label %_ZN12AP_Scheduler16get_loop_rate_hzEv.exit, !dbg !2980

if.then.i:                                        ; preds = %entry
  %44 = getelementptr inbounds %class.AP_Scheduler, %class.AP_Scheduler* %call33, i32 0, i32 2, i32 0, !dbg !2981
  %45 = load i16, i16* %44, align 2, !dbg !2981
  store i16 %45, i16* %_value.i.i, align 4, !dbg !2981
  br label %_ZN12AP_Scheduler16get_loop_rate_hzEv.exit, !dbg !2983

_ZN12AP_Scheduler16get_loop_rate_hzEv.exit:       ; preds = %entry, %if.then.i
  %46 = phi i16 [ %45, %if.then.i ], [ %43, %entry ], !dbg !2984
  call void @llvm.dbg.value(metadata %class.AP_Scheduler* %call33, metadata !2970, metadata !DIExpression(DW_OP_plus_uconst, 60, DW_OP_stack_value)), !dbg !2985
  %conv = uitofp i16 %46 to float, !dbg !2776
  %47 = bitcast %class.AC_AttitudeControl_Multi* %this to void (%class.AC_AttitudeControl_Multi*, float)***, !dbg !2987
  %vtable = load void (%class.AC_AttitudeControl_Multi*, float)**, void (%class.AC_AttitudeControl_Multi*, float)*** %47, align 4, !dbg !2987
  %vfn = getelementptr inbounds void (%class.AC_AttitudeControl_Multi*, float)*, void (%class.AC_AttitudeControl_Multi*, float)** %vtable, i32 25, !dbg !2987
  %48 = load void (%class.AC_AttitudeControl_Multi*, float)*, void (%class.AC_AttitudeControl_Multi*, float)** %vfn, align 4, !dbg !2987
  tail call void %48(%class.AC_AttitudeControl_Multi* nonnull dereferenceable(1068) %this, float %conv) #12, !dbg !2987
  ret %class.AC_AttitudeControl_Multi* %this, !dbg !2988
}

; Function Attrs: argmemonly nofree nosync nounwind willreturn
declare void @llvm.lifetime.start.p0i8(i64 immarg, i8* nocapture) #1

; Function Attrs: argmemonly nofree nosync nounwind willreturn
declare void @llvm.lifetime.end.p0i8(i64 immarg, i8* nocapture) #1

declare dso_local void @_ZN8AP_Param21setup_object_defaultsEPKvPKNS_9GroupInfoE(i8*, %"struct.AP_Param::GroupInfo"*) local_unnamed_addr #2

declare !dbg !2989 dso_local nonnull align 8 dereferenceable(164) %class.AP_Scheduler* @_ZN2AP9schedulerEv() local_unnamed_addr #2

; Function Attrs: mustprogress nounwind
define dso_local void @_ZN24AC_AttitudeControl_Multi29update_althold_lean_angle_maxEf(%class.AC_AttitudeControl_Multi* nocapture nonnull dereferenceable(1068) %this, float %throttle_in) unnamed_addr #3 align 16 !dbg !2993 {
entry:
  call void @llvm.dbg.value(metadata %class.AC_AttitudeControl_Multi* %this, metadata !2995, metadata !DIExpression()), !dbg !2999
  call void @llvm.dbg.value(metadata float %throttle_in, metadata !2996, metadata !DIExpression()), !dbg !2999
  %_motors_multi = getelementptr inbounds %class.AC_AttitudeControl_Multi, %class.AC_AttitudeControl_Multi* %this, i32 0, i32 1, !dbg !3000
  %0 = load %class.AP_MotorsMulticopter*, %class.AP_MotorsMulticopter** %_motors_multi, align 4, !dbg !3000
  call void @llvm.dbg.value(metadata %class.AP_MotorsMulticopter* %0, metadata !3001, metadata !DIExpression()), !dbg !3010
  %_throttle_thrust_max.i = getelementptr inbounds %class.AP_MotorsMulticopter, %class.AP_MotorsMulticopter* %0, i32 0, i32 21, !dbg !3012
  %1 = load float, float* %_throttle_thrust_max.i, align 4, !dbg !3012
  call void @llvm.dbg.value(metadata float %1, metadata !2997, metadata !DIExpression()), !dbg !2999
  call void @llvm.dbg.value(metadata float %1, metadata !3013, metadata !DIExpression()) #11, !dbg !3019
  %2 = tail call float @llvm.fabs.f32(float %1) #11, !dbg !3022
  %cmp.i = fcmp olt float %2, 0x3E80000000000000, !dbg !3023
  br i1 %cmp.i, label %if.then, label %if.end, !dbg !3024

if.then:                                          ; preds = %entry
  %3 = getelementptr inbounds %class.AC_AttitudeControl_Multi, %class.AC_AttitudeControl_Multi* %this, i32 0, i32 0, i32 31, !dbg !3025
  store float 0.000000e+00, float* %3, align 4, !dbg !3027
  br label %cleanup, !dbg !3028

if.end:                                           ; preds = %entry
  %mul = fmul float %1, 0x3FE99999A0000000, !dbg !3029
  %div = fdiv float %throttle_in, %mul, !dbg !3029
  %call3 = tail call float @_Z20constrain_value_lineIfET_S0_S0_S0_j(float %div, float 0.000000e+00, float 1.000000e+00, i32 346) #12, !dbg !3029
  %call4 = tail call float @acosf(float %call3) #12, !dbg !3030
  call void @llvm.dbg.value(metadata float %call4, metadata !2998, metadata !DIExpression()), !dbg !2999
  %4 = getelementptr inbounds %class.AC_AttitudeControl_Multi, %class.AC_AttitudeControl_Multi* %this, i32 0, i32 0, i32 31, !dbg !3031
  %5 = load float, float* %4, align 4, !dbg !3031
  %6 = getelementptr inbounds %class.AC_AttitudeControl_Multi, %class.AC_AttitudeControl_Multi* %this, i32 0, i32 0, i32 16, !dbg !3032
  %7 = load float, float* %6, align 4, !dbg !3032
  call void @llvm.dbg.value(metadata %class.AC_AttitudeControl_Multi* %this, metadata !3033, metadata !DIExpression(DW_OP_plus_uconst, 60, DW_OP_stack_value)), !dbg !3037
  %_value.i = getelementptr inbounds %class.AC_AttitudeControl_Multi, %class.AC_AttitudeControl_Multi* %this, i32 0, i32 0, i32 14, i32 0, !dbg !3039
  %8 = load float, float* %_value.i, align 4, !dbg !3040
  %add = fadd float %7, %8, !dbg !3041
  %div8 = fdiv float %7, %add, !dbg !3042
  %sub = fsub float %call4, %5, !dbg !3043
  %mul10 = fmul float %sub, %div8, !dbg !3044
  %add11 = fadd float %5, %mul10, !dbg !3045
  store float %add11, float* %4, align 4, !dbg !3046
  br label %cleanup, !dbg !3047

cleanup:                                          ; preds = %if.end, %if.then
  ret void, !dbg !3047
}

; Function Attrs: nofree nounwind willreturn
declare dso_local float @acosf(float) local_unnamed_addr #4

declare !dbg !3048 dso_local float @_Z20constrain_value_lineIfET_S0_S0_S0_j(float, float, float, i32) local_unnamed_addr #2

; Function Attrs: mustprogress nounwind
define dso_local void @_ZN24AC_AttitudeControl_Multi16set_throttle_outEfbf(%class.AC_AttitudeControl_Multi* nonnull dereferenceable(1068) %this, float %throttle_in, i1 zeroext %apply_angle_boost, float %filter_cutoff) unnamed_addr #3 align 16 !dbg !3052 {
entry:
  call void @llvm.dbg.value(metadata %class.AC_AttitudeControl_Multi* %this, metadata !3054, metadata !DIExpression()), !dbg !3058
  call void @llvm.dbg.value(metadata float %throttle_in, metadata !3055, metadata !DIExpression()), !dbg !3058
  call void @llvm.dbg.value(metadata i1 %apply_angle_boost, metadata !3056, metadata !DIExpression(DW_OP_LLVM_convert, 1, DW_ATE_unsigned, DW_OP_LLVM_convert, 8, DW_ATE_unsigned, DW_OP_stack_value)), !dbg !3058
  call void @llvm.dbg.value(metadata float %filter_cutoff, metadata !3057, metadata !DIExpression()), !dbg !3058
  %0 = getelementptr inbounds %class.AC_AttitudeControl_Multi, %class.AC_AttitudeControl_Multi* %this, i32 0, i32 0, i32 27, !dbg !3059
  store float %throttle_in, float* %0, align 4, !dbg !3060
  call void @llvm.dbg.value(metadata float %throttle_in, metadata !3055, metadata !DIExpression()), !dbg !3058
  %1 = bitcast %class.AC_AttitudeControl_Multi* %this to void (%class.AC_AttitudeControl_Multi*, float)***, !dbg !3061
  %vtable = load void (%class.AC_AttitudeControl_Multi*, float)**, void (%class.AC_AttitudeControl_Multi*, float)*** %1, align 4, !dbg !3061
  %vfn = getelementptr inbounds void (%class.AC_AttitudeControl_Multi*, float)*, void (%class.AC_AttitudeControl_Multi*, float)** %vtable, i32 21, !dbg !3061
  %2 = load void (%class.AC_AttitudeControl_Multi*, float)*, void (%class.AC_AttitudeControl_Multi*, float)** %vfn, align 4, !dbg !3061
  tail call void %2(%class.AC_AttitudeControl_Multi* nonnull dereferenceable(1068) %this, float %throttle_in) #12, !dbg !3061
  %3 = getelementptr inbounds %class.AC_AttitudeControl_Multi, %class.AC_AttitudeControl_Multi* %this, i32 0, i32 0, i32 43, !dbg !3062
  %4 = load %class.AP_Motors*, %class.AP_Motors** %3, align 4, !dbg !3062
  call void @llvm.dbg.value(metadata %class.AP_Motors* %4, metadata !3063, metadata !DIExpression()) #11, !dbg !3072
  call void @llvm.dbg.value(metadata float %filter_cutoff, metadata !3070, metadata !DIExpression()) #11, !dbg !3072
  %_throttle_filter.i = getelementptr inbounds %class.AP_Motors, %class.AP_Motors* %4, i32 0, i32 18, !dbg !3074
  tail call void @_ZN13LowPassFilterIfE20set_cutoff_frequencyEf(%class.LowPassFilter* nonnull dereferenceable(16) %_throttle_filter.i, float %filter_cutoff) #12, !dbg !3075
  br i1 %apply_angle_boost, label %if.then, label %if.end, !dbg !3076

if.then:                                          ; preds = %entry
  call void @llvm.dbg.value(metadata float %throttle_in, metadata !3055, metadata !DIExpression()), !dbg !3058
  call void @llvm.dbg.value(metadata %class.AC_AttitudeControl_Multi* %this, metadata !3077, metadata !DIExpression()) #11, !dbg !3086
  call void @llvm.dbg.value(metadata float %throttle_in, metadata !3080, metadata !DIExpression()) #11, !dbg !3086
  call void @llvm.dbg.value(metadata %class.AC_AttitudeControl_Multi* %this, metadata !3090, metadata !DIExpression(DW_OP_plus_uconst, 33, DW_OP_stack_value)) #11, !dbg !3094
  %_value.i.i = getelementptr inbounds %class.AC_AttitudeControl_Multi, %class.AC_AttitudeControl_Multi* %this, i32 0, i32 0, i32 9, i32 0, !dbg !3097
  %5 = load i8, i8* %_value.i.i, align 1, !dbg !3098
  %tobool.not.i = icmp eq i8 %5, 0, !dbg !3098
  br i1 %tobool.not.i, label %if.end, label %if.end.i, !dbg !3099

if.end.i:                                         ; preds = %if.then
  %6 = getelementptr inbounds %class.AC_AttitudeControl_Multi, %class.AC_AttitudeControl_Multi* %this, i32 0, i32 0, i32 41, !dbg !3100
  %7 = load %class.AP_AHRS_View*, %class.AP_AHRS_View** %6, align 4, !dbg !3100
  call void @llvm.dbg.value(metadata %class.AP_AHRS_View* %7, metadata !3101, metadata !DIExpression()) #11, !dbg !3110
  %cos_pitch.i.i = getelementptr inbounds %class.AP_AHRS_View, %class.AP_AHRS_View* %7, i32 0, i32 13, i32 1, !dbg !3112
  %8 = load float, float* %cos_pitch.i.i, align 4, !dbg !3112
  call void @llvm.dbg.value(metadata %class.AP_AHRS_View* %7, metadata !3113, metadata !DIExpression()) #11, !dbg !3117
  %cos_roll.i.i = getelementptr inbounds %class.AP_AHRS_View, %class.AP_AHRS_View* %7, i32 0, i32 13, i32 0, !dbg !3119
  %9 = load float, float* %cos_roll.i.i, align 4, !dbg !3119
  %mul.i = fmul float %8, %9, !dbg !3120
  call void @llvm.dbg.value(metadata float %mul.i, metadata !3081, metadata !DIExpression()) #11, !dbg !3086
  %mul5.i = fmul float %mul.i, 1.000000e+01, !dbg !3121
  %call6.i = tail call float @_Z20constrain_value_lineIfET_S0_S0_S0_j(float %mul5.i, float 0.000000e+00, float 1.000000e+00, i32 384) #12, !dbg !3121
  call void @llvm.dbg.value(metadata float %call6.i, metadata !3082, metadata !DIExpression()) #11, !dbg !3086
  %10 = getelementptr inbounds %class.AC_AttitudeControl_Multi, %class.AC_AttitudeControl_Multi* %this, i32 0, i32 0, i32 25, !dbg !3122
  %11 = load float, float* %10, align 4, !dbg !3122
  %call7.i = tail call float @cosf(float %11) #12, !dbg !3123
  call void @llvm.dbg.value(metadata float %call7.i, metadata !3083, metadata !DIExpression()) #11, !dbg !3086
  %call8.i = tail call float @_Z20constrain_value_lineIfET_S0_S0_S0_j(float %call7.i, float 0x3FB99999A0000000, float 1.000000e+00, i32 386) #12, !dbg !3124
  %div.i = fdiv float 1.000000e+00, %call8.i, !dbg !3125
  call void @llvm.dbg.value(metadata float %div.i, metadata !3084, metadata !DIExpression()) #11, !dbg !3086
  %mul9.i = fmul float %call6.i, %throttle_in, !dbg !3126
  %mul10.i = fmul float %mul9.i, %div.i, !dbg !3127
  call void @llvm.dbg.value(metadata float %mul10.i, metadata !3085, metadata !DIExpression()) #11, !dbg !3086
  %sub.i = fsub float %mul10.i, %throttle_in, !dbg !3128
  %call11.i = tail call float @_Z20constrain_value_lineIfET_S0_S0_S0_j(float %sub.i, float -1.000000e+00, float 1.000000e+00, i32 389) #12, !dbg !3128
  br label %if.end

if.end:                                           ; preds = %entry, %if.end.i, %if.then
  %.sink = phi float [ %call11.i, %if.end.i ], [ 0.000000e+00, %if.then ], [ 0.000000e+00, %entry ]
  %throttle_in.addr.0 = phi float [ %mul10.i, %if.end.i ], [ %throttle_in, %if.then ], [ %throttle_in, %entry ]
  %12 = getelementptr inbounds %class.AC_AttitudeControl_Multi, %class.AC_AttitudeControl_Multi* %this, i32 0, i32 0, i32 28, !dbg !3129
  store float %.sink, float* %12, align 4, !dbg !3129
  %13 = load %class.AP_Motors*, %class.AP_Motors** %3, align 4, !dbg !3130
  call void @llvm.dbg.value(metadata float %throttle_in.addr.0, metadata !3055, metadata !DIExpression()), !dbg !3058
  call void @llvm.dbg.value(metadata %class.AP_Motors* %13, metadata !3131, metadata !DIExpression()), !dbg !3136
  call void @llvm.dbg.value(metadata float %throttle_in.addr.0, metadata !3135, metadata !DIExpression()), !dbg !3136
  %_throttle_in.i = getelementptr inbounds %class.AP_Motors, %class.AP_Motors* %13, i32 0, i32 12, !dbg !3138
  store float %throttle_in.addr.0, float* %_throttle_in.i, align 4, !dbg !3139
  %14 = load %class.AP_Motors*, %class.AP_Motors** %3, align 4, !dbg !3140
  call void @llvm.dbg.value(metadata float* undef, metadata !3141, metadata !DIExpression()), !dbg !3150
  call void @llvm.dbg.value(metadata float* %0, metadata !3146, metadata !DIExpression()), !dbg !3150
  %15 = load float, float* %0, align 4, !dbg !3152
  %cmp.i = fcmp ogt float %throttle_in.addr.0, %15, !dbg !3153
  %.sroa.speculated = select i1 %cmp.i, float %throttle_in.addr.0, float %15, !dbg !3154
  call void @llvm.dbg.value(metadata %class.AC_AttitudeControl_Multi* %this, metadata !3155, metadata !DIExpression()) #11, !dbg !3159
  call void @llvm.dbg.value(metadata float %.sroa.speculated, metadata !3158, metadata !DIExpression()) #11, !dbg !3159
  %call.i = tail call float @_Z20constrain_value_lineIfET_S0_S0_S0_j(float %.sroa.speculated, float 0.000000e+00, float 1.000000e+00, i32 397) #12, !dbg !3161
  call void @llvm.dbg.value(metadata float %call.i, metadata !3158, metadata !DIExpression()) #11, !dbg !3159
  call void @llvm.dbg.value(metadata float %call.i, metadata !3158, metadata !DIExpression()) #11, !dbg !3159
  %16 = getelementptr inbounds %class.AC_AttitudeControl_Multi, %class.AC_AttitudeControl_Multi* %this, i32 0, i32 0, i32 33, !dbg !3162
  %17 = load float, float* %16, align 4, !dbg !3162
  %sub.i7 = fsub float 1.000000e+00, %17, !dbg !3163
  call void @llvm.dbg.value(metadata float* undef, metadata !3141, metadata !DIExpression()) #11, !dbg !3164
  call void @llvm.dbg.value(metadata float* undef, metadata !3146, metadata !DIExpression()) #11, !dbg !3164
  %cmp.i.i = fcmp olt float %sub.i7, 0.000000e+00, !dbg !3166
  %.sroa.speculated.i = select i1 %cmp.i.i, float 0.000000e+00, float %sub.i7, !dbg !3167
  %mul.i8 = fmul float %call.i, %.sroa.speculated.i, !dbg !3168
  %18 = load %class.AP_Motors*, %class.AP_Motors** %3, align 4, !dbg !3169
  %19 = bitcast %class.AP_Motors* %18 to float (%class.AP_Motors*)***, !dbg !3170
  %vtable.i = load float (%class.AP_Motors*)**, float (%class.AP_Motors*)*** %19, align 4, !dbg !3170
  %vfn.i = getelementptr inbounds float (%class.AP_Motors*)*, float (%class.AP_Motors*)** %vtable.i, i32 3, !dbg !3170
  %20 = load float (%class.AP_Motors*)*, float (%class.AP_Motors*)** %vfn.i, align 4, !dbg !3170
  %call5.i = tail call float %20(%class.AP_Motors* nonnull dereferenceable(225) %18) #12, !dbg !3170
  %21 = load float, float* %16, align 4, !dbg !3171
  %mul7.i = fmul float %call5.i, %21, !dbg !3172
  %add.i = fadd float %mul.i8, %mul7.i, !dbg !3173
  call void @llvm.dbg.value(metadata float* undef, metadata !3141, metadata !DIExpression()) #11, !dbg !3174
  call void @llvm.dbg.value(metadata float* undef, metadata !3146, metadata !DIExpression()) #11, !dbg !3174
  %cmp.i9.i = fcmp ogt float %call.i, %add.i, !dbg !3176
  %.sroa.speculated15.i = select i1 %cmp.i9.i, float %call.i, float %add.i, !dbg !3177
  call void @llvm.dbg.value(metadata %class.AP_Motors* %14, metadata !3178, metadata !DIExpression()) #11, !dbg !3183
  call void @llvm.dbg.value(metadata float %.sroa.speculated15.i, metadata !3182, metadata !DIExpression()) #11, !dbg !3183
  %call.i9 = tail call float @_Z20constrain_value_lineIfET_S0_S0_S0_j(float %.sroa.speculated15.i, float 0.000000e+00, float 1.000000e+00, i32 141) #12, !dbg !3185
  %_throttle_avg_max.i = getelementptr inbounds %class.AP_Motors, %class.AP_Motors* %14, i32 0, i32 17, !dbg !3186
  store float %call.i9, float* %_throttle_avg_max.i, align 4, !dbg !3187
  ret void, !dbg !3188
}

; Function Attrs: mustprogress nounwind
define dso_local float @_ZN24AC_AttitudeControl_Multi20get_throttle_boostedEf(%class.AC_AttitudeControl_Multi* nocapture nonnull dereferenceable(1068) %this, float %throttle_in) local_unnamed_addr #3 align 16 !dbg !3078 {
entry:
  call void @llvm.dbg.value(metadata %class.AC_AttitudeControl_Multi* %this, metadata !3077, metadata !DIExpression()), !dbg !3189
  call void @llvm.dbg.value(metadata float %throttle_in, metadata !3080, metadata !DIExpression()), !dbg !3189
  call void @llvm.dbg.value(metadata %class.AC_AttitudeControl_Multi* %this, metadata !3090, metadata !DIExpression(DW_OP_plus_uconst, 33, DW_OP_stack_value)), !dbg !3190
  %_value.i = getelementptr inbounds %class.AC_AttitudeControl_Multi, %class.AC_AttitudeControl_Multi* %this, i32 0, i32 0, i32 9, i32 0, !dbg !3192
  %0 = load i8, i8* %_value.i, align 1, !dbg !3193
  %tobool.not = icmp eq i8 %0, 0, !dbg !3193
  br i1 %tobool.not, label %return, label %if.end, !dbg !3194

if.end:                                           ; preds = %entry
  %1 = getelementptr inbounds %class.AC_AttitudeControl_Multi, %class.AC_AttitudeControl_Multi* %this, i32 0, i32 0, i32 41, !dbg !3195
  %2 = load %class.AP_AHRS_View*, %class.AP_AHRS_View** %1, align 4, !dbg !3195
  call void @llvm.dbg.value(metadata %class.AP_AHRS_View* %2, metadata !3101, metadata !DIExpression()), !dbg !3196
  %cos_pitch.i = getelementptr inbounds %class.AP_AHRS_View, %class.AP_AHRS_View* %2, i32 0, i32 13, i32 1, !dbg !3198
  %3 = load float, float* %cos_pitch.i, align 4, !dbg !3198
  call void @llvm.dbg.value(metadata %class.AP_AHRS_View* %2, metadata !3113, metadata !DIExpression()), !dbg !3199
  %cos_roll.i = getelementptr inbounds %class.AP_AHRS_View, %class.AP_AHRS_View* %2, i32 0, i32 13, i32 0, !dbg !3201
  %4 = load float, float* %cos_roll.i, align 4, !dbg !3201
  %mul = fmul float %3, %4, !dbg !3202
  call void @llvm.dbg.value(metadata float %mul, metadata !3081, metadata !DIExpression()), !dbg !3189
  %mul5 = fmul float %mul, 1.000000e+01, !dbg !3203
  %call6 = tail call float @_Z20constrain_value_lineIfET_S0_S0_S0_j(float %mul5, float 0.000000e+00, float 1.000000e+00, i32 384) #12, !dbg !3203
  call void @llvm.dbg.value(metadata float %call6, metadata !3082, metadata !DIExpression()), !dbg !3189
  %5 = getelementptr inbounds %class.AC_AttitudeControl_Multi, %class.AC_AttitudeControl_Multi* %this, i32 0, i32 0, i32 25, !dbg !3204
  %6 = load float, float* %5, align 4, !dbg !3204
  %call7 = tail call float @cosf(float %6) #12, !dbg !3205
  call void @llvm.dbg.value(metadata float %call7, metadata !3083, metadata !DIExpression()), !dbg !3189
  %call8 = tail call float @_Z20constrain_value_lineIfET_S0_S0_S0_j(float %call7, float 0x3FB99999A0000000, float 1.000000e+00, i32 386) #12, !dbg !3206
  %div = fdiv float 1.000000e+00, %call8, !dbg !3207
  call void @llvm.dbg.value(metadata float %div, metadata !3084, metadata !DIExpression()), !dbg !3189
  %mul9 = fmul float %call6, %throttle_in, !dbg !3208
  %mul10 = fmul float %mul9, %div, !dbg !3209
  call void @llvm.dbg.value(metadata float %mul10, metadata !3085, metadata !DIExpression()), !dbg !3189
  %sub = fsub float %mul10, %throttle_in, !dbg !3210
  %call11 = tail call float @_Z20constrain_value_lineIfET_S0_S0_S0_j(float %sub, float -1.000000e+00, float 1.000000e+00, i32 389) #12, !dbg !3210
  br label %return

return:                                           ; preds = %entry, %if.end
  %call11.sink = phi float [ %call11, %if.end ], [ 0.000000e+00, %entry ], !dbg !3189
  %retval.0 = phi float [ %mul10, %if.end ], [ %throttle_in, %entry ], !dbg !3189
  %7 = getelementptr inbounds %class.AC_AttitudeControl_Multi, %class.AC_AttitudeControl_Multi* %this, i32 0, i32 0, i32 28, !dbg !3211
  store float %call11.sink, float* %7, align 4, !dbg !3213
  ret float %retval.0, !dbg !3214
}

; Function Attrs: mustprogress nounwind
define dso_local float @_ZN24AC_AttitudeControl_Multi20get_throttle_avg_maxEf(%class.AC_AttitudeControl_Multi* nocapture nonnull readonly dereferenceable(1068) %this, float %throttle_in) local_unnamed_addr #3 align 16 !dbg !3156 {
entry:
  call void @llvm.dbg.value(metadata %class.AC_AttitudeControl_Multi* %this, metadata !3155, metadata !DIExpression()), !dbg !3215
  call void @llvm.dbg.value(metadata float %throttle_in, metadata !3158, metadata !DIExpression()), !dbg !3215
  %call = tail call float @_Z20constrain_value_lineIfET_S0_S0_S0_j(float %throttle_in, float 0.000000e+00, float 1.000000e+00, i32 397) #12, !dbg !3216
  call void @llvm.dbg.value(metadata float %call, metadata !3158, metadata !DIExpression()), !dbg !3215
  call void @llvm.dbg.value(metadata float %call, metadata !3158, metadata !DIExpression()), !dbg !3215
  %0 = getelementptr inbounds %class.AC_AttitudeControl_Multi, %class.AC_AttitudeControl_Multi* %this, i32 0, i32 0, i32 33, !dbg !3217
  %1 = load float, float* %0, align 4, !dbg !3217
  %sub = fsub float 1.000000e+00, %1, !dbg !3218
  call void @llvm.dbg.value(metadata float* undef, metadata !3141, metadata !DIExpression()), !dbg !3219
  call void @llvm.dbg.value(metadata float* undef, metadata !3146, metadata !DIExpression()), !dbg !3219
  %cmp.i = fcmp olt float %sub, 0.000000e+00, !dbg !3221
  %.sroa.speculated = select i1 %cmp.i, float 0.000000e+00, float %sub, !dbg !3222
  %mul = fmul float %call, %.sroa.speculated, !dbg !3223
  %2 = getelementptr inbounds %class.AC_AttitudeControl_Multi, %class.AC_AttitudeControl_Multi* %this, i32 0, i32 0, i32 43, !dbg !3224
  %3 = load %class.AP_Motors*, %class.AP_Motors** %2, align 4, !dbg !3224
  %4 = bitcast %class.AP_Motors* %3 to float (%class.AP_Motors*)***, !dbg !3225
  %vtable = load float (%class.AP_Motors*)**, float (%class.AP_Motors*)*** %4, align 4, !dbg !3225
  %vfn = getelementptr inbounds float (%class.AP_Motors*)*, float (%class.AP_Motors*)** %vtable, i32 3, !dbg !3225
  %5 = load float (%class.AP_Motors*)*, float (%class.AP_Motors*)** %vfn, align 4, !dbg !3225
  %call5 = tail call float %5(%class.AP_Motors* nonnull dereferenceable(225) %3) #12, !dbg !3225
  %6 = load float, float* %0, align 4, !dbg !3226
  %mul7 = fmul float %call5, %6, !dbg !3227
  %add = fadd float %mul, %mul7, !dbg !3228
  call void @llvm.dbg.value(metadata float* undef, metadata !3141, metadata !DIExpression()), !dbg !3229
  call void @llvm.dbg.value(metadata float* undef, metadata !3146, metadata !DIExpression()), !dbg !3229
  %cmp.i9 = fcmp ogt float %call, %add, !dbg !3231
  %.sroa.speculated15 = select i1 %cmp.i9, float %call, float %add, !dbg !3232
  ret float %.sroa.speculated15, !dbg !3233
}

; Function Attrs: mustprogress nounwind
define dso_local void @_ZN24AC_AttitudeControl_Multi20set_throttle_mix_maxEf(%class.AC_AttitudeControl_Multi* nocapture nonnull dereferenceable(1068) %this, float %ratio) unnamed_addr #3 align 16 !dbg !3234 {
entry:
  call void @llvm.dbg.value(metadata %class.AC_AttitudeControl_Multi* %this, metadata !3236, metadata !DIExpression()), !dbg !3238
  call void @llvm.dbg.value(metadata float %ratio, metadata !3237, metadata !DIExpression()), !dbg !3238
  %call = tail call float @_Z20constrain_value_lineIfET_S0_S0_S0_j(float %ratio, float 0.000000e+00, float 1.000000e+00, i32 368) #12, !dbg !3239
  call void @llvm.dbg.value(metadata float %call, metadata !3237, metadata !DIExpression()), !dbg !3238
  %sub = fsub float 1.000000e+00, %call, !dbg !3240
  call void @llvm.dbg.value(metadata %class.AC_AttitudeControl_Multi* %this, metadata !3033, metadata !DIExpression(DW_OP_plus_uconst, 1056, DW_OP_stack_value)), !dbg !3241
  %_value.i = getelementptr inbounds %class.AC_AttitudeControl_Multi, %class.AC_AttitudeControl_Multi* %this, i32 0, i32 6, i32 0, !dbg !3243
  %0 = load float, float* %_value.i, align 4, !dbg !3244
  %mul = fmul float %sub, %0, !dbg !3245
  call void @llvm.dbg.value(metadata %class.AC_AttitudeControl_Multi* %this, metadata !3033, metadata !DIExpression(DW_OP_plus_uconst, 1060, DW_OP_stack_value)), !dbg !3246
  %_value.i7 = getelementptr inbounds %class.AC_AttitudeControl_Multi, %class.AC_AttitudeControl_Multi* %this, i32 0, i32 7, i32 0, !dbg !3248
  %1 = load float, float* %_value.i7, align 4, !dbg !3249
  %mul4 = fmul float %call, %1, !dbg !3250
  %add = fadd float %mul, %mul4, !dbg !3251
  %2 = getelementptr inbounds %class.AC_AttitudeControl_Multi, %class.AC_AttitudeControl_Multi* %this, i32 0, i32 0, i32 32, !dbg !3252
  store float %add, float* %2, align 4, !dbg !3253
  ret void, !dbg !3254
}

; Function Attrs: nofree nounwind willreturn
declare dso_local float @cosf(float) local_unnamed_addr #4

; Function Attrs: nounwind
define dso_local void @_ZN24AC_AttitudeControl_Multi26update_throttle_gain_boostEv(%class.AC_AttitudeControl_Multi* nocapture nonnull dereferenceable(1068) %this) local_unnamed_addr #0 align 16 !dbg !3255 {
entry:
  call void @llvm.dbg.value(metadata %class.AC_AttitudeControl_Multi* %this, metadata !3257, metadata !DIExpression()), !dbg !3262
  %0 = getelementptr inbounds %class.AC_AttitudeControl_Multi, %class.AC_AttitudeControl_Multi* %this, i32 0, i32 0, i32 43, !dbg !3263
  %1 = load %class.AP_Motors*, %class.AP_Motors** %0, align 4, !dbg !3263
  call void @llvm.dbg.value(metadata %class.AP_Motors* %1, metadata !3264, metadata !DIExpression()), !dbg !3273
  %_throttle_slew_rate.i = getelementptr inbounds %class.AP_Motors, %class.AP_Motors* %1, i32 0, i32 14, !dbg !3275
  %2 = load float, float* %_throttle_slew_rate.i, align 4, !dbg !3275
  %cmp = fcmp ogt float %2, 1.000000e+00, !dbg !3276
  br i1 %cmp, label %if.then, label %if.end, !dbg !3277

if.then:                                          ; preds = %entry
  call void @llvm.dbg.value(metadata %class.AC_AttitudeControl_Multi* %this, metadata !3033, metadata !DIExpression(DW_OP_plus_uconst, 1064, DW_OP_stack_value)), !dbg !3278
  %_value.i31 = getelementptr inbounds %class.AC_AttitudeControl_Multi, %class.AC_AttitudeControl_Multi* %this, i32 0, i32 8, i32 0, !dbg !3280
  %3 = load float, float* %_value.i31, align 4, !dbg !3281
  %add = fadd float %3, 1.000000e+00, !dbg !3281
  %call3 = tail call float @_Z20constrain_value_lineIfET_S0_S0_S0_j(float %add, float 1.000000e+00, float 2.000000e+00, i32 406) #12, !dbg !3281
  call void @llvm.dbg.value(metadata float %call3, metadata !3258, metadata !DIExpression()), !dbg !3282
  call void @llvm.dbg.value(metadata %class.AC_AttitudeControl_Multi* %this, metadata !3283, metadata !DIExpression()), !dbg !3292
  call void @llvm.dbg.value(metadata %class.Vector3* undef, metadata !3291, metadata !DIExpression()), !dbg !3292
  call void @llvm.dbg.value(metadata %class.AC_AttitudeControl_Multi* %this, metadata !3294, metadata !DIExpression(DW_OP_plus_uconst, 244, DW_OP_stack_value)), !dbg !3298
  call void @llvm.dbg.value(metadata %class.Vector3* undef, metadata !3297, metadata !DIExpression()), !dbg !3298
  %4 = getelementptr inbounds %class.AC_AttitudeControl_Multi, %class.AC_AttitudeControl_Multi* %this, i32 0, i32 0, i32 39, i32 0, !dbg !3300
  %5 = load float, float* %4, align 4, !dbg !3301
  %mul.i.i21 = fmul float %call3, %5, !dbg !3301
  store float %mul.i.i21, float* %4, align 4, !dbg !3301
  %6 = getelementptr inbounds %class.AC_AttitudeControl_Multi, %class.AC_AttitudeControl_Multi* %this, i32 0, i32 0, i32 39, i32 1, !dbg !3302
  %7 = load float, float* %6, align 4, !dbg !3303
  %mul4.i.i24 = fmul float %call3, %7, !dbg !3303
  store float %mul4.i.i24, float* %6, align 4, !dbg !3303
  call void @llvm.dbg.value(metadata %class.AC_AttitudeControl_Multi* %this, metadata !3033, metadata !DIExpression(DW_OP_plus_uconst, 1064, DW_OP_stack_value)), !dbg !3304
  %8 = load float, float* %_value.i31, align 4, !dbg !3306
  %add7 = fadd float %8, 1.000000e+00, !dbg !3306
  call void @llvm.dbg.value(metadata %class.AC_AttitudeControl_Multi* %this, metadata !3033, metadata !DIExpression(DW_OP_plus_uconst, 1064, DW_OP_stack_value)), !dbg !3307
  %mul = fmul float %add7, %add7, !dbg !3306
  %call11 = tail call float @_Z20constrain_value_lineIfET_S0_S0_S0_j(float %mul, float 1.000000e+00, float 4.000000e+00, i32 409) #12, !dbg !3306
  call void @llvm.dbg.value(metadata float %call11, metadata !3261, metadata !DIExpression()), !dbg !3282
  call void @llvm.dbg.value(metadata %class.AC_AttitudeControl_Multi* %this, metadata !3309, metadata !DIExpression()), !dbg !3314
  call void @llvm.dbg.value(metadata %class.Vector3* undef, metadata !3313, metadata !DIExpression()), !dbg !3314
  call void @llvm.dbg.value(metadata %class.AC_AttitudeControl_Multi* %this, metadata !3294, metadata !DIExpression(DW_OP_plus_uconst, 220, DW_OP_stack_value)), !dbg !3316
  call void @llvm.dbg.value(metadata %class.Vector3* undef, metadata !3297, metadata !DIExpression()), !dbg !3316
  %9 = getelementptr inbounds %class.AC_AttitudeControl_Multi, %class.AC_AttitudeControl_Multi* %this, i32 0, i32 0, i32 37, i32 0, !dbg !3318
  %10 = load float, float* %9, align 4, !dbg !3319
  %mul.i.i = fmul float %call11, %10, !dbg !3319
  store float %mul.i.i, float* %9, align 4, !dbg !3319
  %11 = getelementptr inbounds %class.AC_AttitudeControl_Multi, %class.AC_AttitudeControl_Multi* %this, i32 0, i32 0, i32 37, i32 1, !dbg !3320
  %12 = load float, float* %11, align 4, !dbg !3321
  %mul4.i.i = fmul float %call11, %12, !dbg !3321
  store float %mul4.i.i, float* %11, align 4, !dbg !3321
  br label %if.end, !dbg !3322

if.end:                                           ; preds = %if.then, %entry
  ret void, !dbg !3323
}

; Function Attrs: mustprogress nounwind
define dso_local void @_ZN24AC_AttitudeControl_Multi23update_throttle_rpy_mixEv(%class.AC_AttitudeControl_Multi* nocapture nonnull dereferenceable(1068) %this) local_unnamed_addr #3 align 16 !dbg !3324 {
entry:
  call void @llvm.dbg.value(metadata %class.AC_AttitudeControl_Multi* %this, metadata !3326, metadata !DIExpression()), !dbg !3334
  %0 = getelementptr inbounds %class.AC_AttitudeControl_Multi, %class.AC_AttitudeControl_Multi* %this, i32 0, i32 0, i32 33, !dbg !3335
  %1 = load float, float* %0, align 4, !dbg !3335
  %2 = getelementptr inbounds %class.AC_AttitudeControl_Multi, %class.AC_AttitudeControl_Multi* %this, i32 0, i32 0, i32 32, !dbg !3336
  %3 = load float, float* %2, align 4, !dbg !3336
  %cmp = fcmp olt float %1, %3, !dbg !3337
  br i1 %cmp, label %if.then, label %if.else, !dbg !3338

if.then:                                          ; preds = %entry
  %4 = getelementptr inbounds %class.AC_AttitudeControl_Multi, %class.AC_AttitudeControl_Multi* %this, i32 0, i32 0, i32 16, !dbg !3339
  %5 = load float, float* %4, align 4, !dbg !3339
  %mul = fmul float %5, 2.000000e+00, !dbg !3341
  %sub = fsub float %3, %1, !dbg !3342
  call void @llvm.dbg.value(metadata float* undef, metadata !3343, metadata !DIExpression()), !dbg !3347
  call void @llvm.dbg.value(metadata float* undef, metadata !3346, metadata !DIExpression()), !dbg !3347
  %cmp.i = fcmp olt float %mul, %sub, !dbg !3349
  %.sroa.speculated69 = select i1 %cmp.i, float %mul, float %sub, !dbg !3350
  %add = fadd float %1, %.sroa.speculated69, !dbg !3351
  br label %if.end39.sink.split, !dbg !3352

if.else:                                          ; preds = %entry
  %cmp8 = fcmp ogt float %1, %3, !dbg !3353
  br i1 %cmp8, label %if.then9, label %if.end39, !dbg !3354

if.then9:                                         ; preds = %if.else
  %6 = getelementptr inbounds %class.AC_AttitudeControl_Multi, %class.AC_AttitudeControl_Multi* %this, i32 0, i32 0, i32 16, !dbg !3355
  %7 = load float, float* %6, align 4, !dbg !3355
  %mul12 = fmul float %7, 5.000000e-01, !dbg !3356
  %sub16 = fsub float %1, %3, !dbg !3357
  call void @llvm.dbg.value(metadata float* undef, metadata !3343, metadata !DIExpression()), !dbg !3358
  call void @llvm.dbg.value(metadata float* undef, metadata !3346, metadata !DIExpression()), !dbg !3358
  %cmp.i57 = fcmp olt float %mul12, %sub16, !dbg !3360
  %.sroa.speculated65 = select i1 %cmp.i57, float %mul12, float %sub16, !dbg !3361
  %sub19 = fsub float %1, %.sroa.speculated65, !dbg !3362
  store float %sub19, float* %0, align 4, !dbg !3362
  %8 = getelementptr inbounds %class.AC_AttitudeControl_Multi, %class.AC_AttitudeControl_Multi* %this, i32 0, i32 0, i32 43, !dbg !3363
  %9 = load %class.AP_Motors*, %class.AP_Motors** %8, align 4, !dbg !3363
  %10 = bitcast %class.AP_Motors* %9 to float (%class.AP_Motors*)***, !dbg !3364
  %vtable = load float (%class.AP_Motors*)**, float (%class.AP_Motors*)*** %10, align 4, !dbg !3364
  %vfn = getelementptr inbounds float (%class.AP_Motors*)*, float (%class.AP_Motors*)** %vtable, i32 3, !dbg !3364
  %11 = load float (%class.AP_Motors*)*, float (%class.AP_Motors*)** %vfn, align 4, !dbg !3364
  %call20 = tail call float %11(%class.AP_Motors* nonnull dereferenceable(225) %9) #12, !dbg !3364
  call void @llvm.dbg.value(metadata float %call20, metadata !3327, metadata !DIExpression()), !dbg !3365
  %12 = load %class.AP_Motors*, %class.AP_Motors** %8, align 4, !dbg !3366
  call void @llvm.dbg.value(metadata %class.AP_Motors* %12, metadata !3367, metadata !DIExpression()) #11, !dbg !3371
  %_throttle_filter.i = getelementptr inbounds %class.AP_Motors, %class.AP_Motors* %12, i32 0, i32 18, !dbg !3373
  %call.i = tail call nonnull align 4 dereferenceable(4) float* @_ZNK13LowPassFilterIfE3getEv(%class.LowPassFilter* nonnull dereferenceable(16) %_throttle_filter.i) #12, !dbg !3373
  %13 = load float, float* %call.i, align 4, !dbg !3373
  %call2.i = tail call float @_Z20constrain_value_lineIfET_S0_S0_S0_j(float %13, float 0.000000e+00, float 1.000000e+00, i32 158) #12, !dbg !3373
  call void @llvm.dbg.value(metadata float %call2.i, metadata !3331, metadata !DIExpression()), !dbg !3365
  %14 = load %class.AP_Motors*, %class.AP_Motors** %8, align 4, !dbg !3374
  call void @llvm.dbg.value(metadata %class.AP_Motors* %14, metadata !3375, metadata !DIExpression()), !dbg !3379
  %_throttle_out.i = getelementptr inbounds %class.AP_Motors, %class.AP_Motors* %14, i32 0, i32 13, !dbg !3381
  %15 = load float, float* %_throttle_out.i, align 4, !dbg !3381
  call void @llvm.dbg.value(metadata float* undef, metadata !3141, metadata !DIExpression()), !dbg !3382
  call void @llvm.dbg.value(metadata float* undef, metadata !3146, metadata !DIExpression()), !dbg !3382
  %cmp.i55 = fcmp ogt float %15, %call2.i, !dbg !3384
  %.sroa.speculated = select i1 %cmp.i55, float %15, float %call2.i, !dbg !3385
  call void @llvm.dbg.value(metadata float %.sroa.speculated, metadata !3332, metadata !DIExpression()), !dbg !3365
  %cmp27 = fcmp olt float %.sroa.speculated, %call20, !dbg !3386
  %div32 = fdiv float %.sroa.speculated, %call20, !dbg !3388
  %sub29 = fsub float %.sroa.speculated, %call2.i, !dbg !3388
  %sub30 = fsub float %call20, %call2.i, !dbg !3388
  %div = fdiv float %sub29, %sub30, !dbg !3388
  %storemerge = select i1 %cmp27, float %div, float %div32, !dbg !3388
  call void @llvm.dbg.value(metadata float* undef, metadata !3141, metadata !DIExpression()), !dbg !3389
  call void @llvm.dbg.value(metadata float* %2, metadata !3146, metadata !DIExpression()), !dbg !3389
  %16 = load float, float* %2, align 4, !dbg !3391
  %cmp.i53 = fcmp ogt float %storemerge, %16, !dbg !3392
  call void @llvm.dbg.value(metadata float* %0, metadata !3343, metadata !DIExpression()), !dbg !3393
  call void @llvm.dbg.value(metadata float* undef, metadata !3346, metadata !DIExpression()), !dbg !3393
  %17 = load float, float* %0, align 4, !dbg !3395
  %18 = select i1 %cmp.i53, float %storemerge, float %16, !dbg !3396
  %cmp.i51 = fcmp olt float %17, %18, !dbg !3397
  %19 = select i1 %cmp.i51, float %17, float %18, !dbg !3398
  br label %if.end39.sink.split, !dbg !3399

if.end39.sink.split:                              ; preds = %if.then, %if.then9
  %.sink = phi float [ %19, %if.then9 ], [ %add, %if.then ]
  store float %.sink, float* %0, align 4, !dbg !3400
  br label %if.end39, !dbg !3401

if.end39:                                         ; preds = %if.end39.sink.split, %if.else
  %20 = phi float [ %1, %if.else ], [ %.sink, %if.end39.sink.split ], !dbg !3401
  %call41 = tail call float @_Z20constrain_value_lineIfET_S0_S0_S0_j(float %20, float 0x3FB99999A0000000, float 5.000000e+00, i32 439) #12, !dbg !3401
  store float %call41, float* %0, align 4, !dbg !3402
  ret void, !dbg !3403
}

; Function Attrs: nounwind
define dso_local void @_ZN24AC_AttitudeControl_Multi19rate_controller_runEv(%class.AC_AttitudeControl_Multi* nonnull dereferenceable(1068) %this) unnamed_addr #0 align 16 !dbg !3404 {
entry:
  call void @llvm.dbg.value(metadata %class.AC_AttitudeControl_Multi* %this, metadata !3406, metadata !DIExpression()), !dbg !3408
  call void @llvm.dbg.value(metadata %class.AC_AttitudeControl_Multi* %this, metadata !3257, metadata !DIExpression()) #11, !dbg !3409
  %0 = getelementptr inbounds %class.AC_AttitudeControl_Multi, %class.AC_AttitudeControl_Multi* %this, i32 0, i32 0, i32 43, !dbg !3411
  %1 = load %class.AP_Motors*, %class.AP_Motors** %0, align 4, !dbg !3411
  call void @llvm.dbg.value(metadata %class.AP_Motors* %1, metadata !3264, metadata !DIExpression()) #11, !dbg !3412
  %_throttle_slew_rate.i.i = getelementptr inbounds %class.AP_Motors, %class.AP_Motors* %1, i32 0, i32 14, !dbg !3414
  %2 = load float, float* %_throttle_slew_rate.i.i, align 4, !dbg !3414
  %cmp.i = fcmp ogt float %2, 1.000000e+00, !dbg !3415
  br i1 %cmp.i, label %if.then.i, label %_ZN24AC_AttitudeControl_Multi26update_throttle_gain_boostEv.exit, !dbg !3416

if.then.i:                                        ; preds = %entry
  call void @llvm.dbg.value(metadata %class.AC_AttitudeControl_Multi* %this, metadata !3033, metadata !DIExpression(DW_OP_plus_uconst, 1064, DW_OP_stack_value)) #11, !dbg !3417
  %_value.i31.i = getelementptr inbounds %class.AC_AttitudeControl_Multi, %class.AC_AttitudeControl_Multi* %this, i32 0, i32 8, i32 0, !dbg !3419
  %3 = load float, float* %_value.i31.i, align 4, !dbg !3420
  %add.i = fadd float %3, 1.000000e+00, !dbg !3420
  %call3.i = tail call float @_Z20constrain_value_lineIfET_S0_S0_S0_j(float %add.i, float 1.000000e+00, float 2.000000e+00, i32 406) #12, !dbg !3420
  call void @llvm.dbg.value(metadata float %call3.i, metadata !3258, metadata !DIExpression()) #11, !dbg !3421
  call void @llvm.dbg.value(metadata %class.AC_AttitudeControl_Multi* %this, metadata !3283, metadata !DIExpression()) #11, !dbg !3422
  call void @llvm.dbg.value(metadata %class.Vector3* undef, metadata !3291, metadata !DIExpression()) #11, !dbg !3422
  call void @llvm.dbg.value(metadata %class.AC_AttitudeControl_Multi* %this, metadata !3294, metadata !DIExpression(DW_OP_plus_uconst, 244, DW_OP_stack_value)) #11, !dbg !3424
  call void @llvm.dbg.value(metadata %class.Vector3* undef, metadata !3297, metadata !DIExpression()) #11, !dbg !3424
  %4 = getelementptr inbounds %class.AC_AttitudeControl_Multi, %class.AC_AttitudeControl_Multi* %this, i32 0, i32 0, i32 39, i32 0, !dbg !3426
  %5 = load float, float* %4, align 4, !dbg !3427
  %mul.i.i21.i = fmul float %call3.i, %5, !dbg !3427
  store float %mul.i.i21.i, float* %4, align 4, !dbg !3427
  %6 = getelementptr inbounds %class.AC_AttitudeControl_Multi, %class.AC_AttitudeControl_Multi* %this, i32 0, i32 0, i32 39, i32 1, !dbg !3428
  %7 = load float, float* %6, align 4, !dbg !3429
  %mul4.i.i24.i = fmul float %call3.i, %7, !dbg !3429
  store float %mul4.i.i24.i, float* %6, align 4, !dbg !3429
  call void @llvm.dbg.value(metadata %class.AC_AttitudeControl_Multi* %this, metadata !3033, metadata !DIExpression(DW_OP_plus_uconst, 1064, DW_OP_stack_value)) #11, !dbg !3430
  %8 = load float, float* %_value.i31.i, align 4, !dbg !3432
  %add7.i = fadd float %8, 1.000000e+00, !dbg !3432
  call void @llvm.dbg.value(metadata %class.AC_AttitudeControl_Multi* %this, metadata !3033, metadata !DIExpression(DW_OP_plus_uconst, 1064, DW_OP_stack_value)) #11, !dbg !3433
  %mul.i = fmul float %add7.i, %add7.i, !dbg !3432
  %call11.i = tail call float @_Z20constrain_value_lineIfET_S0_S0_S0_j(float %mul.i, float 1.000000e+00, float 4.000000e+00, i32 409) #12, !dbg !3432
  call void @llvm.dbg.value(metadata float %call11.i, metadata !3261, metadata !DIExpression()) #11, !dbg !3421
  call void @llvm.dbg.value(metadata %class.AC_AttitudeControl_Multi* %this, metadata !3309, metadata !DIExpression()) #11, !dbg !3435
  call void @llvm.dbg.value(metadata %class.Vector3* undef, metadata !3313, metadata !DIExpression()) #11, !dbg !3435
  call void @llvm.dbg.value(metadata %class.AC_AttitudeControl_Multi* %this, metadata !3294, metadata !DIExpression(DW_OP_plus_uconst, 220, DW_OP_stack_value)) #11, !dbg !3437
  call void @llvm.dbg.value(metadata %class.Vector3* undef, metadata !3297, metadata !DIExpression()) #11, !dbg !3437
  %9 = getelementptr inbounds %class.AC_AttitudeControl_Multi, %class.AC_AttitudeControl_Multi* %this, i32 0, i32 0, i32 37, i32 0, !dbg !3439
  %10 = load float, float* %9, align 4, !dbg !3440
  %mul.i.i.i = fmul float %call11.i, %10, !dbg !3440
  store float %mul.i.i.i, float* %9, align 4, !dbg !3440
  %11 = getelementptr inbounds %class.AC_AttitudeControl_Multi, %class.AC_AttitudeControl_Multi* %this, i32 0, i32 0, i32 37, i32 1, !dbg !3441
  %12 = load float, float* %11, align 4, !dbg !3442
  %mul4.i.i.i = fmul float %call11.i, %12, !dbg !3442
  store float %mul4.i.i.i, float* %11, align 4, !dbg !3442
  br label %_ZN24AC_AttitudeControl_Multi26update_throttle_gain_boostEv.exit, !dbg !3443

_ZN24AC_AttitudeControl_Multi26update_throttle_gain_boostEv.exit: ; preds = %entry, %if.then.i
  tail call void @_ZN24AC_AttitudeControl_Multi23update_throttle_rpy_mixEv(%class.AC_AttitudeControl_Multi* nonnull dereferenceable(1068) %this) #13, !dbg !3444
  %13 = bitcast %class.AC_AttitudeControl_Multi* %this to %class.AC_AttitudeControl*, !dbg !3445
  %14 = getelementptr inbounds %class.AC_AttitudeControl_Multi, %class.AC_AttitudeControl_Multi* %this, i32 0, i32 0, i32 22, !dbg !3445
  %15 = getelementptr inbounds %class.AC_AttitudeControl_Multi, %class.AC_AttitudeControl_Multi* %this, i32 0, i32 0, i32 21, !dbg !3446
  %call = tail call nonnull align 4 dereferenceable(12) %class.Vector3* @_ZN7Vector3IfEpLERKS0_(%class.Vector3* nonnull dereferenceable(12) %15, %class.Vector3* nonnull align 4 dereferenceable(12) %14) #12, !dbg !3447
  %16 = getelementptr inbounds %class.AC_AttitudeControl_Multi, %class.AC_AttitudeControl_Multi* %this, i32 0, i32 0, i32 41, !dbg !3448
  %17 = load %class.AP_AHRS_View*, %class.AP_AHRS_View** %16, align 4, !dbg !3448
  %call2 = tail call %class.Vector3 @_ZNK12AP_AHRS_View15get_gyro_latestEv(%class.AP_AHRS_View* nonnull dereferenceable(188) %17) #12, !dbg !3449
  %18 = extractvalue %class.Vector3 %call2, 0, !dbg !3449
  call void @llvm.dbg.value(metadata float %18, metadata !3407, metadata !DIExpression(DW_OP_LLVM_fragment, 0, 32)), !dbg !3408
  %19 = extractvalue %class.Vector3 %call2, 1, !dbg !3449
  call void @llvm.dbg.value(metadata float %19, metadata !3407, metadata !DIExpression(DW_OP_LLVM_fragment, 32, 32)), !dbg !3408
  %20 = extractvalue %class.Vector3 %call2, 2, !dbg !3449
  call void @llvm.dbg.value(metadata float %20, metadata !3407, metadata !DIExpression(DW_OP_LLVM_fragment, 64, 32)), !dbg !3408
  %21 = load %class.AP_Motors*, %class.AP_Motors** %0, align 4, !dbg !3450
  %22 = bitcast %class.AC_AttitudeControl_Multi* %this to %class.AC_PID* (%class.AC_AttitudeControl_Multi*)***, !dbg !3451
  %vtable = load %class.AC_PID* (%class.AC_AttitudeControl_Multi*)**, %class.AC_PID* (%class.AC_AttitudeControl_Multi*)*** %22, align 4, !dbg !3451
  %vfn = getelementptr inbounds %class.AC_PID* (%class.AC_AttitudeControl_Multi*)*, %class.AC_PID* (%class.AC_AttitudeControl_Multi*)** %vtable, i32 2, !dbg !3451
  %23 = load %class.AC_PID* (%class.AC_AttitudeControl_Multi*)*, %class.AC_PID* (%class.AC_AttitudeControl_Multi*)** %vfn, align 4, !dbg !3451
  %call3 = tail call nonnull align 4 dereferenceable(248) %class.AC_PID* %23(%class.AC_AttitudeControl_Multi* nonnull dereferenceable(1068) %this) #12, !dbg !3451
  %x = getelementptr inbounds %class.Vector3, %class.Vector3* %15, i32 0, i32 0, !dbg !3452
  %24 = load float, float* %x, align 4, !dbg !3452
  %25 = getelementptr inbounds %class.AC_AttitudeControl_Multi, %class.AC_AttitudeControl_Multi* %this, i32 0, i32 0, i32 16, !dbg !3453
  %26 = load float, float* %25, align 4, !dbg !3453
  %27 = load %class.AP_Motors*, %class.AP_Motors** %0, align 4, !dbg !3454
  %roll = getelementptr inbounds %class.AP_Motors, %class.AP_Motors* %27, i32 0, i32 1, i32 0, !dbg !3455
  %28 = load i8, i8* %roll, align 4, !dbg !3455, !range !3456
  %tobool = icmp ne i8 %28, 0, !dbg !3455
  %29 = getelementptr inbounds %class.AC_AttitudeControl_Multi, %class.AC_AttitudeControl_Multi* %this, i32 0, i32 0, i32 39, !dbg !3457
  %x7 = getelementptr inbounds %class.Vector3, %class.Vector3* %29, i32 0, i32 0, !dbg !3458
  %30 = load float, float* %x7, align 4, !dbg !3458
  %call8 = tail call float @_ZN6AC_PID10update_allEfffbf(%class.AC_PID* nonnull dereferenceable(248) %call3, float %24, float %18, float %26, i1 zeroext %tobool, float %30) #12, !dbg !3459
  %x9 = getelementptr inbounds %class.AC_AttitudeControl_Multi, %class.AC_AttitudeControl_Multi* %this, i32 0, i32 0, i32 23, i32 0, !dbg !3460
  %31 = load float, float* %x9, align 4, !dbg !3460
  %add = fadd float %call8, %31, !dbg !3461
  call void @llvm.dbg.value(metadata %class.AP_Motors* %21, metadata !3462, metadata !DIExpression()), !dbg !3467
  call void @llvm.dbg.value(metadata float %add, metadata !3466, metadata !DIExpression()), !dbg !3467
  %_roll_in.i = getelementptr inbounds %class.AP_Motors, %class.AP_Motors* %21, i32 0, i32 6, !dbg !3469
  store float %add, float* %_roll_in.i, align 4, !dbg !3470
  %32 = load %class.AP_Motors*, %class.AP_Motors** %0, align 4, !dbg !3471
  %vtable11 = load %class.AC_PID* (%class.AC_AttitudeControl_Multi*)**, %class.AC_PID* (%class.AC_AttitudeControl_Multi*)*** %22, align 4, !dbg !3472
  %vfn12 = getelementptr inbounds %class.AC_PID* (%class.AC_AttitudeControl_Multi*)*, %class.AC_PID* (%class.AC_AttitudeControl_Multi*)** %vtable11, i32 2, !dbg !3472
  %33 = load %class.AC_PID* (%class.AC_AttitudeControl_Multi*)*, %class.AC_PID* (%class.AC_AttitudeControl_Multi*)** %vfn12, align 4, !dbg !3472
  %call13 = tail call nonnull align 4 dereferenceable(248) %class.AC_PID* %33(%class.AC_AttitudeControl_Multi* nonnull dereferenceable(1068) %this) #12, !dbg !3472
  %call14 = tail call float @_ZNK6AC_PID6get_ffEv(%class.AC_PID* nonnull dereferenceable(248) %call13) #12, !dbg !3473
  call void @llvm.dbg.value(metadata %class.AP_Motors* %32, metadata !3474, metadata !DIExpression()), !dbg !3479
  call void @llvm.dbg.value(metadata float %call14, metadata !3478, metadata !DIExpression()), !dbg !3479
  %_roll_in_ff.i = getelementptr inbounds %class.AP_Motors, %class.AP_Motors* %32, i32 0, i32 7, !dbg !3481
  store float %call14, float* %_roll_in_ff.i, align 4, !dbg !3482
  %34 = load %class.AP_Motors*, %class.AP_Motors** %0, align 4, !dbg !3483
  %vtable16 = load %class.AC_PID* (%class.AC_AttitudeControl_Multi*)**, %class.AC_PID* (%class.AC_AttitudeControl_Multi*)*** %22, align 4, !dbg !3484
  %vfn17 = getelementptr inbounds %class.AC_PID* (%class.AC_AttitudeControl_Multi*)*, %class.AC_PID* (%class.AC_AttitudeControl_Multi*)** %vtable16, i32 3, !dbg !3484
  %35 = load %class.AC_PID* (%class.AC_AttitudeControl_Multi*)*, %class.AC_PID* (%class.AC_AttitudeControl_Multi*)** %vfn17, align 4, !dbg !3484
  %call18 = tail call nonnull align 4 dereferenceable(248) %class.AC_PID* %35(%class.AC_AttitudeControl_Multi* nonnull dereferenceable(1068) %this) #12, !dbg !3484
  %y = getelementptr inbounds %class.AC_AttitudeControl_Multi, %class.AC_AttitudeControl_Multi* %this, i32 0, i32 0, i32 21, i32 1, !dbg !3485
  %36 = load float, float* %y, align 4, !dbg !3485
  %37 = load float, float* %25, align 4, !dbg !3486
  %38 = load %class.AP_Motors*, %class.AP_Motors** %0, align 4, !dbg !3487
  %pitch = getelementptr inbounds %class.AP_Motors, %class.AP_Motors* %38, i32 0, i32 1, i32 1, !dbg !3488
  %39 = load i8, i8* %pitch, align 1, !dbg !3488, !range !3456
  %tobool24 = icmp ne i8 %39, 0, !dbg !3488
  %y26 = getelementptr inbounds %class.AC_AttitudeControl_Multi, %class.AC_AttitudeControl_Multi* %this, i32 0, i32 0, i32 39, i32 1, !dbg !3489
  %40 = load float, float* %y26, align 4, !dbg !3489
  %call27 = tail call float @_ZN6AC_PID10update_allEfffbf(%class.AC_PID* nonnull dereferenceable(248) %call18, float %36, float %19, float %37, i1 zeroext %tobool24, float %40) #12, !dbg !3490
  %y29 = getelementptr inbounds %class.AC_AttitudeControl_Multi, %class.AC_AttitudeControl_Multi* %this, i32 0, i32 0, i32 23, i32 1, !dbg !3491
  %41 = load float, float* %y29, align 4, !dbg !3491
  %add30 = fadd float %call27, %41, !dbg !3492
  call void @llvm.dbg.value(metadata %class.AP_Motors* %34, metadata !3493, metadata !DIExpression()), !dbg !3498
  call void @llvm.dbg.value(metadata float %add30, metadata !3497, metadata !DIExpression()), !dbg !3498
  %_pitch_in.i = getelementptr inbounds %class.AP_Motors, %class.AP_Motors* %34, i32 0, i32 8, !dbg !3500
  store float %add30, float* %_pitch_in.i, align 4, !dbg !3501
  %42 = load %class.AP_Motors*, %class.AP_Motors** %0, align 4, !dbg !3502
  %vtable32 = load %class.AC_PID* (%class.AC_AttitudeControl_Multi*)**, %class.AC_PID* (%class.AC_AttitudeControl_Multi*)*** %22, align 4, !dbg !3503
  %vfn33 = getelementptr inbounds %class.AC_PID* (%class.AC_AttitudeControl_Multi*)*, %class.AC_PID* (%class.AC_AttitudeControl_Multi*)** %vtable32, i32 3, !dbg !3503
  %43 = load %class.AC_PID* (%class.AC_AttitudeControl_Multi*)*, %class.AC_PID* (%class.AC_AttitudeControl_Multi*)** %vfn33, align 4, !dbg !3503
  %call34 = tail call nonnull align 4 dereferenceable(248) %class.AC_PID* %43(%class.AC_AttitudeControl_Multi* nonnull dereferenceable(1068) %this) #12, !dbg !3503
  %call35 = tail call float @_ZNK6AC_PID6get_ffEv(%class.AC_PID* nonnull dereferenceable(248) %call34) #12, !dbg !3504
  call void @llvm.dbg.value(metadata %class.AP_Motors* %42, metadata !3505, metadata !DIExpression()), !dbg !3510
  call void @llvm.dbg.value(metadata float %call35, metadata !3509, metadata !DIExpression()), !dbg !3510
  %_pitch_in_ff.i = getelementptr inbounds %class.AP_Motors, %class.AP_Motors* %42, i32 0, i32 9, !dbg !3512
  store float %call35, float* %_pitch_in_ff.i, align 4, !dbg !3513
  %44 = load %class.AP_Motors*, %class.AP_Motors** %0, align 4, !dbg !3514
  %vtable37 = load %class.AC_PID* (%class.AC_AttitudeControl_Multi*)**, %class.AC_PID* (%class.AC_AttitudeControl_Multi*)*** %22, align 4, !dbg !3515
  %vfn38 = getelementptr inbounds %class.AC_PID* (%class.AC_AttitudeControl_Multi*)*, %class.AC_PID* (%class.AC_AttitudeControl_Multi*)** %vtable37, i32 4, !dbg !3515
  %45 = load %class.AC_PID* (%class.AC_AttitudeControl_Multi*)*, %class.AC_PID* (%class.AC_AttitudeControl_Multi*)** %vfn38, align 4, !dbg !3515
  %call39 = tail call nonnull align 4 dereferenceable(248) %class.AC_PID* %45(%class.AC_AttitudeControl_Multi* nonnull dereferenceable(1068) %this) #12, !dbg !3515
  %z = getelementptr inbounds %class.AC_AttitudeControl_Multi, %class.AC_AttitudeControl_Multi* %this, i32 0, i32 0, i32 21, i32 2, !dbg !3516
  %46 = load float, float* %z, align 4, !dbg !3516
  %47 = load float, float* %25, align 4, !dbg !3517
  %48 = load %class.AP_Motors*, %class.AP_Motors** %0, align 4, !dbg !3518
  %yaw = getelementptr inbounds %class.AP_Motors, %class.AP_Motors* %48, i32 0, i32 1, i32 2, !dbg !3519
  %49 = load i8, i8* %yaw, align 2, !dbg !3519, !range !3456
  %tobool45 = icmp ne i8 %49, 0, !dbg !3519
  %z47 = getelementptr inbounds %class.AC_AttitudeControl_Multi, %class.AC_AttitudeControl_Multi* %this, i32 0, i32 0, i32 39, i32 2, !dbg !3520
  %50 = load float, float* %z47, align 4, !dbg !3520
  %call48 = tail call float @_ZN6AC_PID10update_allEfffbf(%class.AC_PID* nonnull dereferenceable(248) %call39, float %46, float %20, float %47, i1 zeroext %tobool45, float %50) #12, !dbg !3521
  %z50 = getelementptr inbounds %class.AC_AttitudeControl_Multi, %class.AC_AttitudeControl_Multi* %this, i32 0, i32 0, i32 23, i32 2, !dbg !3522
  %51 = load float, float* %z50, align 4, !dbg !3522
  %add51 = fadd float %call48, %51, !dbg !3523
  call void @llvm.dbg.value(metadata %class.AP_Motors* %44, metadata !3524, metadata !DIExpression()), !dbg !3529
  call void @llvm.dbg.value(metadata float %add51, metadata !3528, metadata !DIExpression()), !dbg !3529
  %_yaw_in.i = getelementptr inbounds %class.AP_Motors, %class.AP_Motors* %44, i32 0, i32 10, !dbg !3531
  store float %add51, float* %_yaw_in.i, align 4, !dbg !3532
  %52 = load %class.AP_Motors*, %class.AP_Motors** %0, align 4, !dbg !3533
  %vtable53 = load %class.AC_PID* (%class.AC_AttitudeControl_Multi*)**, %class.AC_PID* (%class.AC_AttitudeControl_Multi*)*** %22, align 4, !dbg !3534
  %vfn54 = getelementptr inbounds %class.AC_PID* (%class.AC_AttitudeControl_Multi*)*, %class.AC_PID* (%class.AC_AttitudeControl_Multi*)** %vtable53, i32 4, !dbg !3534
  %53 = load %class.AC_PID* (%class.AC_AttitudeControl_Multi*)*, %class.AC_PID* (%class.AC_AttitudeControl_Multi*)** %vfn54, align 4, !dbg !3534
  %call55 = tail call nonnull align 4 dereferenceable(248) %class.AC_PID* %53(%class.AC_AttitudeControl_Multi* nonnull dereferenceable(1068) %this) #12, !dbg !3534
  %call56 = tail call float @_ZNK6AC_PID6get_ffEv(%class.AC_PID* nonnull dereferenceable(248) %call55) #12, !dbg !3535
  %54 = getelementptr inbounds %class.AC_AttitudeControl_Multi, %class.AC_AttitudeControl_Multi* %this, i32 0, i32 0, i32 34, !dbg !3536
  %55 = load float, float* %54, align 4, !dbg !3536
  %mul = fmul float %call56, %55, !dbg !3537
  call void @llvm.dbg.value(metadata %class.AP_Motors* %52, metadata !3538, metadata !DIExpression()), !dbg !3543
  call void @llvm.dbg.value(metadata float %mul, metadata !3542, metadata !DIExpression()), !dbg !3543
  %_yaw_in_ff.i = getelementptr inbounds %class.AP_Motors, %class.AP_Motors* %52, i32 0, i32 11, !dbg !3545
  store float %mul, float* %_yaw_in_ff.i, align 4, !dbg !3546
  call void @llvm.dbg.value(metadata %class.Vector3* %14, metadata !3547, metadata !DIExpression()), !dbg !3550
  call void @llvm.dbg.value(metadata %class.AC_AttitudeControl_Multi* %this, metadata !3547, metadata !DIExpression(DW_OP_plus_uconst, 148, DW_OP_stack_value)), !dbg !3552
  %56 = getelementptr inbounds %class.AC_AttitudeControl_Multi, %class.AC_AttitudeControl_Multi* %this, i32 0, i32 0, i32 40, !dbg !3554
  %57 = bitcast %class.Vector3* %56 to i8*, !dbg !3555
  %58 = bitcast %class.Vector3* %29 to i8*, !dbg !3555
  %59 = bitcast %class.Vector3* %14 to i8*, !dbg !3555
  call void @llvm.memset.p0i8.i64(i8* nonnull align 4 dereferenceable(24) %59, i8 0, i64 24, i1 false), !dbg !3556
  tail call void @llvm.memcpy.p0i8.p0i8.i32(i8* nonnull align 4 dereferenceable(12) %57, i8* nonnull align 4 dereferenceable(12) %58, i32 12, i1 false), !dbg !3555
  tail call void @llvm.memcpy.p0i8.p0i8.i32(i8* nonnull align 4 dereferenceable(12) %58, i8* nonnull align 4 dereferenceable(12) bitcast (%class.Vector3* @_ZN18AC_AttitudeControl11VECTORF_111E to i8*), i32 12, i1 false), !dbg !3557
  tail call void @_ZN18AC_AttitudeControl22control_monitor_updateEv(%class.AC_AttitudeControl* nonnull dereferenceable(301) %13) #12, !dbg !3558
  ret void, !dbg !3559
}

declare dso_local nonnull align 4 dereferenceable(12) %class.Vector3* @_ZN7Vector3IfEpLERKS0_(%class.Vector3* nonnull dereferenceable(12), %class.Vector3* nonnull align 4 dereferenceable(12)) local_unnamed_addr #2

declare dso_local %class.Vector3 @_ZNK12AP_AHRS_View15get_gyro_latestEv(%class.AP_AHRS_View* nonnull dereferenceable(188)) local_unnamed_addr #2

declare dso_local float @_ZN6AC_PID10update_allEfffbf(%class.AC_PID* nonnull dereferenceable(248), float, float, float, i1 zeroext, float) local_unnamed_addr #2

declare dso_local float @_ZNK6AC_PID6get_ffEv(%class.AC_PID* nonnull dereferenceable(248)) local_unnamed_addr #2

; Function Attrs: argmemonly nofree nounwind willreturn
declare void @llvm.memcpy.p0i8.p0i8.i32(i8* noalias nocapture writeonly, i8* noalias nocapture readonly, i32, i1 immarg) #5

declare dso_local void @_ZN18AC_AttitudeControl22control_monitor_updateEv(%class.AC_AttitudeControl* nonnull dereferenceable(301)) local_unnamed_addr #2

; Function Attrs: mustprogress nounwind
define dso_local void @_ZN24AC_AttitudeControl_Multi22parameter_sanity_checkEv(%class.AC_AttitudeControl_Multi* nonnull dereferenceable(1068) %this) unnamed_addr #3 align 16 !dbg !3560 {
entry:
  %ref.tmp = alloca float, align 4
  %ref.tmp17 = alloca float, align 4
  %ref.tmp30 = alloca float, align 4
  %ref.tmp42 = alloca float, align 4
  %ref.tmp44 = alloca float, align 4
  call void @llvm.dbg.value(metadata %class.AC_AttitudeControl_Multi* %this, metadata !3562, metadata !DIExpression()), !dbg !3563
  %_thr_mix_man = getelementptr inbounds %class.AC_AttitudeControl_Multi, %class.AC_AttitudeControl_Multi* %this, i32 0, i32 5, !dbg !3564
  call void @llvm.dbg.value(metadata %class.AP_ParamT* %_thr_mix_man, metadata !3033, metadata !DIExpression()), !dbg !3566
  %_value.i = getelementptr inbounds %class.AP_ParamT, %class.AP_ParamT* %_thr_mix_man, i32 0, i32 0, !dbg !3568
  %0 = load float, float* %_value.i, align 4, !dbg !3564
  %cmp = fcmp olt float %0, 0x3FB99999A0000000, !dbg !3569
  %cmp4 = fcmp ogt float %0, 4.000000e+00
  %or.cond = or i1 %cmp, %cmp4, !dbg !3570
  call void @llvm.dbg.value(metadata %class.AP_ParamT* %_thr_mix_man, metadata !3033, metadata !DIExpression()), !dbg !3571
  br i1 %or.cond, label %if.then, label %if.end, !dbg !3570

if.then:                                          ; preds = %entry
  %1 = bitcast float* %ref.tmp to i8*, !dbg !3573
  call void @llvm.lifetime.start.p0i8(i64 4, i8* nonnull %1) #11, !dbg !3573
  call void @llvm.dbg.value(metadata %class.AP_ParamT* %_thr_mix_man, metadata !3033, metadata !DIExpression()), !dbg !3575
  %call8 = tail call float @_Z20constrain_value_lineIfET_S0_S0_S0_j(float %0, float 0x3FB99999A0000000, float 4.000000e+00, i32 479) #12, !dbg !3573
  store float %call8, float* %ref.tmp, align 4, !dbg !3573
  call void @_ZN9AP_ParamTIfL11ap_var_type4EE12set_and_saveERKf(%class.AP_ParamT* nonnull dereferenceable(4) %_thr_mix_man, float* nonnull align 4 dereferenceable(4) %ref.tmp) #12, !dbg !3577
  call void @llvm.lifetime.end.p0i8(i64 4, i8* nonnull %1) #11, !dbg !3578
  br label %if.end, !dbg !3579

if.end:                                           ; preds = %entry, %if.then
  %_thr_mix_min = getelementptr inbounds %class.AC_AttitudeControl_Multi, %class.AC_AttitudeControl_Multi* %this, i32 0, i32 6, !dbg !3580
  call void @llvm.dbg.value(metadata %class.AP_ParamT* %_thr_mix_min, metadata !3033, metadata !DIExpression()), !dbg !3582
  %_value.i53 = getelementptr inbounds %class.AP_ParamT, %class.AP_ParamT* %_thr_mix_min, i32 0, i32 0, !dbg !3584
  %2 = load float, float* %_value.i53, align 4, !dbg !3580
  %cmp10 = fcmp olt float %2, 0x3FB99999A0000000, !dbg !3585
  %cmp14 = fcmp ogt float %2, 5.000000e-01
  %or.cond56 = or i1 %cmp10, %cmp14, !dbg !3586
  call void @llvm.dbg.value(metadata %class.AP_ParamT* %_thr_mix_min, metadata !3033, metadata !DIExpression()), !dbg !3587
  br i1 %or.cond56, label %if.then15, label %if.end21, !dbg !3586

if.then15:                                        ; preds = %if.end
  %3 = bitcast float* %ref.tmp17 to i8*, !dbg !3589
  call void @llvm.lifetime.start.p0i8(i64 4, i8* nonnull %3) #11, !dbg !3589
  call void @llvm.dbg.value(metadata %class.AP_ParamT* %_thr_mix_min, metadata !3033, metadata !DIExpression()), !dbg !3591
  %call20 = call float @_Z20constrain_value_lineIfET_S0_S0_S0_j(float %2, float 0x3FB99999A0000000, float 5.000000e-01, i32 482) #12, !dbg !3589
  store float %call20, float* %ref.tmp17, align 4, !dbg !3589
  call void @_ZN9AP_ParamTIfL11ap_var_type4EE12set_and_saveERKf(%class.AP_ParamT* nonnull dereferenceable(4) %_thr_mix_min, float* nonnull align 4 dereferenceable(4) %ref.tmp17) #12, !dbg !3593
  call void @llvm.lifetime.end.p0i8(i64 4, i8* nonnull %3) #11, !dbg !3594
  br label %if.end21, !dbg !3595

if.end21:                                         ; preds = %if.end, %if.then15
  %_thr_mix_max = getelementptr inbounds %class.AC_AttitudeControl_Multi, %class.AC_AttitudeControl_Multi* %this, i32 0, i32 7, !dbg !3596
  call void @llvm.dbg.value(metadata %class.AP_ParamT* %_thr_mix_max, metadata !3033, metadata !DIExpression()), !dbg !3598
  %_value.i50 = getelementptr inbounds %class.AP_ParamT, %class.AP_ParamT* %_thr_mix_max, i32 0, i32 0, !dbg !3600
  %4 = load float, float* %_value.i50, align 4, !dbg !3596
  %cmp23 = fcmp olt float %4, 5.000000e-01, !dbg !3601
  %cmp27 = fcmp ogt float %4, 5.000000e+00
  %or.cond57 = or i1 %cmp23, %cmp27, !dbg !3602
  call void @llvm.dbg.value(metadata %class.AP_ParamT* %_thr_mix_max, metadata !3033, metadata !DIExpression()), !dbg !3603
  br i1 %or.cond57, label %if.then28, label %if.end34, !dbg !3602

if.then28:                                        ; preds = %if.end21
  %5 = bitcast float* %ref.tmp30 to i8*, !dbg !3605
  call void @llvm.lifetime.start.p0i8(i64 4, i8* nonnull %5) #11, !dbg !3605
  call void @llvm.dbg.value(metadata %class.AP_ParamT* %_thr_mix_max, metadata !3033, metadata !DIExpression()), !dbg !3607
  %call33 = call float @_Z20constrain_value_lineIfET_S0_S0_S0_j(float %4, float 5.000000e-01, float 5.000000e+00, i32 487) #12, !dbg !3605
  store float %call33, float* %ref.tmp30, align 4, !dbg !3605
  call void @_ZN9AP_ParamTIfL11ap_var_type4EE12set_and_saveERKf(%class.AP_ParamT* nonnull dereferenceable(4) %_thr_mix_max, float* nonnull align 4 dereferenceable(4) %ref.tmp30) #12, !dbg !3609
  call void @llvm.lifetime.end.p0i8(i64 4, i8* nonnull %5) #11, !dbg !3610
  %.pre = load float, float* %_value.i50, align 4, !dbg !3611
  br label %if.end34, !dbg !3613

if.end34:                                         ; preds = %if.end21, %if.then28
  %6 = phi float [ %4, %if.end21 ], [ %.pre, %if.then28 ], !dbg !3611
  call void @llvm.dbg.value(metadata %class.AP_ParamT* %_thr_mix_min, metadata !3033, metadata !DIExpression()), !dbg !3614
  %7 = load float, float* %_value.i53, align 4, !dbg !3616
  call void @llvm.dbg.value(metadata %class.AP_ParamT* %_thr_mix_max, metadata !3033, metadata !DIExpression()), !dbg !3617
  %cmp39 = fcmp ogt float %7, %6, !dbg !3619
  br i1 %cmp39, label %if.then40, label %if.end45, !dbg !3620

if.then40:                                        ; preds = %if.end34
  %8 = bitcast float* %ref.tmp42 to i8*, !dbg !3621
  call void @llvm.lifetime.start.p0i8(i64 4, i8* nonnull %8) #11, !dbg !3621
  store float 0x3FB99999A0000000, float* %ref.tmp42, align 4, !dbg !3621
  call void @_ZN9AP_ParamTIfL11ap_var_type4EE12set_and_saveERKf(%class.AP_ParamT* nonnull dereferenceable(4) %_thr_mix_min, float* nonnull align 4 dereferenceable(4) %ref.tmp42) #12, !dbg !3623
  call void @llvm.lifetime.end.p0i8(i64 4, i8* nonnull %8) #11, !dbg !3624
  %9 = bitcast float* %ref.tmp44 to i8*, !dbg !3625
  call void @llvm.lifetime.start.p0i8(i64 4, i8* nonnull %9) #11, !dbg !3625
  store float 5.000000e-01, float* %ref.tmp44, align 4, !dbg !3625
  call void @_ZN9AP_ParamTIfL11ap_var_type4EE12set_and_saveERKf(%class.AP_ParamT* nonnull dereferenceable(4) %_thr_mix_max, float* nonnull align 4 dereferenceable(4) %ref.tmp44) #12, !dbg !3626
  call void @llvm.lifetime.end.p0i8(i64 4, i8* nonnull %9) #11, !dbg !3627
  br label %if.end45, !dbg !3628

if.end45:                                         ; preds = %if.then40, %if.end34
  ret void, !dbg !3629
}

declare dso_local void @_ZN9AP_ParamTIfL11ap_var_type4EE12set_and_saveERKf(%class.AP_ParamT* nonnull dereferenceable(4), float* nonnull align 4 dereferenceable(4)) local_unnamed_addr #2

; Function Attrs: mustprogress nounwind
define dso_local void @_ZN24AC_AttitudeControl_Multi21set_notch_sample_rateEf(%class.AC_AttitudeControl_Multi* nonnull dereferenceable(1068) %this, float %sample_rate) unnamed_addr #3 align 16 !dbg !3630 {
entry:
  call void @llvm.dbg.value(metadata %class.AC_AttitudeControl_Multi* %this, metadata !3632, metadata !DIExpression()), !dbg !3634
  call void @llvm.dbg.value(metadata float %sample_rate, metadata !3633, metadata !DIExpression()), !dbg !3634
  %_pid_rate_roll = getelementptr inbounds %class.AC_AttitudeControl_Multi, %class.AC_AttitudeControl_Multi* %this, i32 0, i32 2, !dbg !3635
  tail call void @_ZN6AC_PID21set_notch_sample_rateEf(%class.AC_PID* nonnull dereferenceable(248) %_pid_rate_roll, float %sample_rate) #12, !dbg !3636
  %_pid_rate_pitch = getelementptr inbounds %class.AC_AttitudeControl_Multi, %class.AC_AttitudeControl_Multi* %this, i32 0, i32 3, !dbg !3637
  tail call void @_ZN6AC_PID21set_notch_sample_rateEf(%class.AC_PID* nonnull dereferenceable(248) %_pid_rate_pitch, float %sample_rate) #12, !dbg !3638
  %_pid_rate_yaw = getelementptr inbounds %class.AC_AttitudeControl_Multi, %class.AC_AttitudeControl_Multi* %this, i32 0, i32 4, !dbg !3639
  tail call void @_ZN6AC_PID21set_notch_sample_rateEf(%class.AC_PID* nonnull dereferenceable(248) %_pid_rate_yaw, float %sample_rate) #12, !dbg !3640
  ret void, !dbg !3641
}

declare dso_local void @_ZN6AC_PID21set_notch_sample_rateEf(%class.AC_PID* nonnull dereferenceable(248), float) local_unnamed_addr #2

; Function Attrs: nounwind willreturn
define linkonce_odr dso_local %class.AC_AttitudeControl* @_ZN18AC_AttitudeControlD2Ev(%class.AC_AttitudeControl* nonnull returned dereferenceable(301) %this) unnamed_addr #6 comdat align 16 !dbg !3642 {
entry:
  call void @llvm.dbg.value(metadata %class.AC_AttitudeControl* %this, metadata !3647, metadata !DIExpression()), !dbg !3648
  ret %class.AC_AttitudeControl* %this, !dbg !3649
}

; Function Attrs: nounwind
define linkonce_odr dso_local void @_ZN24AC_AttitudeControl_MultiD0Ev(%class.AC_AttitudeControl_Multi* nonnull dereferenceable(1068) %this) unnamed_addr #0 comdat align 16 !dbg !3650 {
entry:
  call void @llvm.dbg.value(metadata %class.AC_AttitudeControl_Multi* %this, metadata !3652, metadata !DIExpression()), !dbg !3653
  %0 = bitcast %class.AC_AttitudeControl_Multi* %this to i8*, !dbg !3654
  tail call void @_ZdlPv(i8* nonnull %0) #14, !dbg !3654
  ret void, !dbg !3655
}

; Function Attrs: mustprogress nounwind willreturn
define linkonce_odr dso_local nonnull align 4 dereferenceable(248) %class.AC_PID* @_ZN24AC_AttitudeControl_Multi17get_rate_roll_pidEv(%class.AC_AttitudeControl_Multi* nonnull dereferenceable(1068) %this) unnamed_addr #7 comdat align 16 !dbg !3656 {
entry:
  call void @llvm.dbg.value(metadata %class.AC_AttitudeControl_Multi* %this, metadata !3658, metadata !DIExpression()), !dbg !3659
  %_pid_rate_roll = getelementptr inbounds %class.AC_AttitudeControl_Multi, %class.AC_AttitudeControl_Multi* %this, i32 0, i32 2, !dbg !3660
  ret %class.AC_PID* %_pid_rate_roll, !dbg !3661
}

; Function Attrs: mustprogress nounwind willreturn
define linkonce_odr dso_local nonnull align 4 dereferenceable(248) %class.AC_PID* @_ZN24AC_AttitudeControl_Multi18get_rate_pitch_pidEv(%class.AC_AttitudeControl_Multi* nonnull dereferenceable(1068) %this) unnamed_addr #7 comdat align 16 !dbg !3662 {
entry:
  call void @llvm.dbg.value(metadata %class.AC_AttitudeControl_Multi* %this, metadata !3664, metadata !DIExpression()), !dbg !3665
  %_pid_rate_pitch = getelementptr inbounds %class.AC_AttitudeControl_Multi, %class.AC_AttitudeControl_Multi* %this, i32 0, i32 3, !dbg !3666
  ret %class.AC_PID* %_pid_rate_pitch, !dbg !3667
}

; Function Attrs: mustprogress nounwind willreturn
define linkonce_odr dso_local nonnull align 4 dereferenceable(248) %class.AC_PID* @_ZN24AC_AttitudeControl_Multi16get_rate_yaw_pidEv(%class.AC_AttitudeControl_Multi* nonnull dereferenceable(1068) %this) unnamed_addr #7 comdat align 16 !dbg !3668 {
entry:
  call void @llvm.dbg.value(metadata %class.AC_AttitudeControl_Multi* %this, metadata !3670, metadata !DIExpression()), !dbg !3671
  %_pid_rate_yaw = getelementptr inbounds %class.AC_AttitudeControl_Multi, %class.AC_AttitudeControl_Multi* %this, i32 0, i32 4, !dbg !3672
  ret %class.AC_PID* %_pid_rate_yaw, !dbg !3673
}

; Function Attrs: mustprogress nounwind willreturn
define linkonce_odr dso_local nonnull align 4 dereferenceable(248) %class.AC_PID* @_ZNK24AC_AttitudeControl_Multi17get_rate_roll_pidEv(%class.AC_AttitudeControl_Multi* nonnull dereferenceable(1068) %this) unnamed_addr #7 comdat align 16 !dbg !3674 {
entry:
  call void @llvm.dbg.value(metadata %class.AC_AttitudeControl_Multi* %this, metadata !3676, metadata !DIExpression()), !dbg !3678
  %_pid_rate_roll = getelementptr inbounds %class.AC_AttitudeControl_Multi, %class.AC_AttitudeControl_Multi* %this, i32 0, i32 2, !dbg !3679
  ret %class.AC_PID* %_pid_rate_roll, !dbg !3680
}

; Function Attrs: mustprogress nounwind willreturn
define linkonce_odr dso_local nonnull align 4 dereferenceable(248) %class.AC_PID* @_ZNK24AC_AttitudeControl_Multi18get_rate_pitch_pidEv(%class.AC_AttitudeControl_Multi* nonnull dereferenceable(1068) %this) unnamed_addr #7 comdat align 16 !dbg !3681 {
entry:
  call void @llvm.dbg.value(metadata %class.AC_AttitudeControl_Multi* %this, metadata !3683, metadata !DIExpression()), !dbg !3684
  %_pid_rate_pitch = getelementptr inbounds %class.AC_AttitudeControl_Multi, %class.AC_AttitudeControl_Multi* %this, i32 0, i32 3, !dbg !3685
  ret %class.AC_PID* %_pid_rate_pitch, !dbg !3686
}

; Function Attrs: mustprogress nounwind willreturn
define linkonce_odr dso_local nonnull align 4 dereferenceable(248) %class.AC_PID* @_ZNK24AC_AttitudeControl_Multi16get_rate_yaw_pidEv(%class.AC_AttitudeControl_Multi* nonnull dereferenceable(1068) %this) unnamed_addr #7 comdat align 16 !dbg !3687 {
entry:
  call void @llvm.dbg.value(metadata %class.AC_AttitudeControl_Multi* %this, metadata !3689, metadata !DIExpression()), !dbg !3690
  %_pid_rate_yaw = getelementptr inbounds %class.AC_AttitudeControl_Multi, %class.AC_AttitudeControl_Multi* %this, i32 0, i32 4, !dbg !3691
  ret %class.AC_PID* %_pid_rate_yaw, !dbg !3692
}

; Function Attrs: mustprogress nounwind
define linkonce_odr dso_local void @_ZN18AC_AttitudeControl26relax_attitude_controllersEb(%class.AC_AttitudeControl* nonnull dereferenceable(301) %this, i1 zeroext %exclude_pitch) unnamed_addr #3 comdat align 16 !dbg !3693 {
entry:
  call void @llvm.dbg.value(metadata %class.AC_AttitudeControl* %this, metadata !3698, metadata !DIExpression()), !dbg !3700
  call void @llvm.dbg.value(metadata i1 %exclude_pitch, metadata !3699, metadata !DIExpression(DW_OP_LLVM_convert, 1, DW_ATE_unsigned, DW_OP_LLVM_convert, 8, DW_ATE_unsigned, DW_OP_stack_value)), !dbg !3700
  tail call void @_ZN18AC_AttitudeControl26relax_attitude_controllersEv(%class.AC_AttitudeControl* nonnull dereferenceable(301) %this) #12, !dbg !3701
  ret void, !dbg !3702
}

declare dso_local void @_ZN18AC_AttitudeControl16input_quaternionER11QuaternionTIfE7Vector3IfE(%class.AC_AttitudeControl* nonnull dereferenceable(301), %class.QuaternionT* nonnull align 4 dereferenceable(16), %class.Vector3) unnamed_addr #2

declare dso_local void @_ZN18AC_AttitudeControl43input_euler_angle_roll_pitch_euler_rate_yawEfff(%class.AC_AttitudeControl* nonnull dereferenceable(301), float, float, float) unnamed_addr #2

declare dso_local void @_ZN18AC_AttitudeControl32input_euler_angle_roll_pitch_yawEfffb(%class.AC_AttitudeControl* nonnull dereferenceable(301), float, float, float, i1 zeroext) unnamed_addr #2

; Function Attrs: mustprogress nounwind willreturn
define linkonce_odr dso_local void @_ZN18AC_AttitudeControl46input_euler_rate_yaw_euler_angle_pitch_bf_rollEbfff(%class.AC_AttitudeControl* nonnull dereferenceable(301) %this, i1 zeroext %plane_controls, float %euler_roll_angle_cd, float %euler_pitch_angle_cd, float %euler_yaw_rate_cds) unnamed_addr #7 comdat align 16 !dbg !3703 {
entry:
  call void @llvm.dbg.value(metadata %class.AC_AttitudeControl* %this, metadata !3708, metadata !DIExpression()), !dbg !3713
  call void @llvm.dbg.value(metadata i1 %plane_controls, metadata !3709, metadata !DIExpression(DW_OP_LLVM_convert, 1, DW_ATE_unsigned, DW_OP_LLVM_convert, 8, DW_ATE_unsigned, DW_OP_stack_value)), !dbg !3713
  call void @llvm.dbg.value(metadata float %euler_roll_angle_cd, metadata !3710, metadata !DIExpression()), !dbg !3713
  call void @llvm.dbg.value(metadata float %euler_pitch_angle_cd, metadata !3711, metadata !DIExpression()), !dbg !3713
  call void @llvm.dbg.value(metadata float %euler_yaw_rate_cds, metadata !3712, metadata !DIExpression()), !dbg !3713
  ret void, !dbg !3714
}

declare dso_local void @_ZN18AC_AttitudeControl31input_euler_rate_roll_pitch_yawEfff(%class.AC_AttitudeControl* nonnull dereferenceable(301), float, float, float) unnamed_addr #2

declare dso_local void @_ZN18AC_AttitudeControl28input_rate_bf_roll_pitch_yawEfff(%class.AC_AttitudeControl* nonnull dereferenceable(301), float, float, float) unnamed_addr #2

declare dso_local void @_ZN18AC_AttitudeControl30input_rate_bf_roll_pitch_yaw_2Efff(%class.AC_AttitudeControl* nonnull dereferenceable(301), float, float, float) unnamed_addr #2

declare dso_local void @_ZN18AC_AttitudeControl30input_rate_bf_roll_pitch_yaw_3Efff(%class.AC_AttitudeControl* nonnull dereferenceable(301), float, float, float) unnamed_addr #2

declare dso_local void @_ZN18AC_AttitudeControl34input_angle_step_bf_roll_pitch_yawEfff(%class.AC_AttitudeControl* nonnull dereferenceable(301), float, float, float) unnamed_addr #2

declare dso_local void @_ZN18AC_AttitudeControl32input_thrust_vector_rate_headingERK7Vector3IfEfb(%class.AC_AttitudeControl* nonnull dereferenceable(301), %class.Vector3* nonnull align 4 dereferenceable(12), float, i1 zeroext) unnamed_addr #2

declare dso_local void @_ZN18AC_AttitudeControl27input_thrust_vector_headingERK7Vector3IfEff(%class.AC_AttitudeControl* nonnull dereferenceable(301), %class.Vector3* nonnull align 4 dereferenceable(12), float, float) unnamed_addr #2

declare dso_local float @_ZNK18AC_AttitudeControl29get_althold_lean_angle_max_cdEv(%class.AC_AttitudeControl* nonnull dereferenceable(301)) unnamed_addr #2

; Function Attrs: mustprogress nounwind willreturn
define linkonce_odr dso_local zeroext i1 @_ZNK24AC_AttitudeControl_Multi19is_throttle_mix_minEv(%class.AC_AttitudeControl_Multi* nonnull dereferenceable(1068) %this) unnamed_addr #7 comdat align 16 !dbg !3715 {
entry:
  call void @llvm.dbg.value(metadata %class.AC_AttitudeControl_Multi* %this, metadata !3717, metadata !DIExpression()), !dbg !3718
  %0 = getelementptr inbounds %class.AC_AttitudeControl_Multi, %class.AC_AttitudeControl_Multi* %this, i32 0, i32 0, i32 33, !dbg !3719
  %1 = load float, float* %0, align 4, !dbg !3719
  call void @llvm.dbg.value(metadata %class.AC_AttitudeControl_Multi* %this, metadata !3033, metadata !DIExpression(DW_OP_plus_uconst, 1056, DW_OP_stack_value)), !dbg !3720
  %_value.i = getelementptr inbounds %class.AC_AttitudeControl_Multi, %class.AC_AttitudeControl_Multi* %this, i32 0, i32 6, i32 0, !dbg !3722
  %2 = load float, float* %_value.i, align 4, !dbg !3723
  %mul = fmul float %2, 1.250000e+00, !dbg !3724
  %cmp = fcmp olt float %1, %mul, !dbg !3725
  ret i1 %cmp, !dbg !3726
}

; Function Attrs: mustprogress nounwind willreturn
define linkonce_odr dso_local void @_ZN24AC_AttitudeControl_Multi20set_throttle_mix_minEv(%class.AC_AttitudeControl_Multi* nonnull dereferenceable(1068) %this) unnamed_addr #7 comdat align 16 !dbg !3727 {
entry:
  call void @llvm.dbg.value(metadata %class.AC_AttitudeControl_Multi* %this, metadata !3729, metadata !DIExpression()), !dbg !3730
  call void @llvm.dbg.value(metadata %class.AC_AttitudeControl_Multi* %this, metadata !3033, metadata !DIExpression(DW_OP_plus_uconst, 1056, DW_OP_stack_value)), !dbg !3731
  %_value.i = getelementptr inbounds %class.AC_AttitudeControl_Multi, %class.AC_AttitudeControl_Multi* %this, i32 0, i32 6, i32 0, !dbg !3733
  %0 = load float, float* %_value.i, align 4, !dbg !3734
  %1 = getelementptr inbounds %class.AC_AttitudeControl_Multi, %class.AC_AttitudeControl_Multi* %this, i32 0, i32 0, i32 32, !dbg !3735
  store float %0, float* %1, align 4, !dbg !3736
  ret void, !dbg !3737
}

; Function Attrs: mustprogress nounwind willreturn
define linkonce_odr dso_local void @_ZN24AC_AttitudeControl_Multi20set_throttle_mix_manEv(%class.AC_AttitudeControl_Multi* nonnull dereferenceable(1068) %this) unnamed_addr #7 comdat align 16 !dbg !3738 {
entry:
  call void @llvm.dbg.value(metadata %class.AC_AttitudeControl_Multi* %this, metadata !3740, metadata !DIExpression()), !dbg !3741
  call void @llvm.dbg.value(metadata %class.AC_AttitudeControl_Multi* %this, metadata !3033, metadata !DIExpression(DW_OP_plus_uconst, 1052, DW_OP_stack_value)), !dbg !3742
  %_value.i = getelementptr inbounds %class.AC_AttitudeControl_Multi, %class.AC_AttitudeControl_Multi* %this, i32 0, i32 5, i32 0, !dbg !3744
  %0 = load float, float* %_value.i, align 4, !dbg !3745
  %1 = getelementptr inbounds %class.AC_AttitudeControl_Multi, %class.AC_AttitudeControl_Multi* %this, i32 0, i32 0, i32 32, !dbg !3746
  store float %0, float* %1, align 4, !dbg !3747
  ret void, !dbg !3748
}

; Function Attrs: mustprogress nounwind willreturn
define linkonce_odr dso_local void @_ZN24AC_AttitudeControl_Multi22set_throttle_mix_valueEf(%class.AC_AttitudeControl_Multi* nonnull dereferenceable(1068) %this, float %value) unnamed_addr #7 comdat align 16 !dbg !3749 {
entry:
  call void @llvm.dbg.value(metadata %class.AC_AttitudeControl_Multi* %this, metadata !3751, metadata !DIExpression()), !dbg !3753
  call void @llvm.dbg.value(metadata float %value, metadata !3752, metadata !DIExpression()), !dbg !3753
  %0 = getelementptr inbounds %class.AC_AttitudeControl_Multi, %class.AC_AttitudeControl_Multi* %this, i32 0, i32 0, i32 33, !dbg !3754
  store float %value, float* %0, align 4, !dbg !3755
  %1 = getelementptr inbounds %class.AC_AttitudeControl_Multi, %class.AC_AttitudeControl_Multi* %this, i32 0, i32 0, i32 32, !dbg !3756
  store float %value, float* %1, align 4, !dbg !3757
  ret void, !dbg !3758
}

; Function Attrs: mustprogress nounwind willreturn
define linkonce_odr dso_local float @_ZNK24AC_AttitudeControl_Multi16get_throttle_mixEv(%class.AC_AttitudeControl_Multi* nonnull dereferenceable(1068) %this) unnamed_addr #7 comdat align 16 !dbg !3759 {
entry:
  call void @llvm.dbg.value(metadata %class.AC_AttitudeControl_Multi* %this, metadata !3761, metadata !DIExpression()), !dbg !3762
  %0 = getelementptr inbounds %class.AC_AttitudeControl_Multi, %class.AC_AttitudeControl_Multi* %this, i32 0, i32 0, i32 33, !dbg !3763
  %1 = load float, float* %0, align 4, !dbg !3763
  ret float %1, !dbg !3764
}

; Function Attrs: mustprogress nounwind willreturn
define linkonce_odr dso_local void @_ZN18AC_AttitudeControl22use_flybar_passthroughEbb(%class.AC_AttitudeControl* nonnull dereferenceable(301) %this, i1 zeroext %passthrough, i1 zeroext %tail_passthrough) unnamed_addr #7 comdat align 16 !dbg !3765 {
entry:
  call void @llvm.dbg.value(metadata %class.AC_AttitudeControl* %this, metadata !3770, metadata !DIExpression()), !dbg !3773
  call void @llvm.dbg.value(metadata i1 %passthrough, metadata !3771, metadata !DIExpression(DW_OP_LLVM_convert, 1, DW_ATE_unsigned, DW_OP_LLVM_convert, 8, DW_ATE_unsigned, DW_OP_stack_value)), !dbg !3773
  call void @llvm.dbg.value(metadata i1 %tail_passthrough, metadata !3772, metadata !DIExpression(DW_OP_LLVM_convert, 1, DW_ATE_unsigned, DW_OP_LLVM_convert, 8, DW_ATE_unsigned, DW_OP_stack_value)), !dbg !3773
  ret void, !dbg !3774
}

; Function Attrs: mustprogress nounwind willreturn
define linkonce_odr dso_local void @_ZN18AC_AttitudeControl11use_leaky_iEb(%class.AC_AttitudeControl* nonnull dereferenceable(301) %this, i1 zeroext %leaky_i) unnamed_addr #7 comdat align 16 !dbg !3775 {
entry:
  call void @llvm.dbg.value(metadata %class.AC_AttitudeControl* %this, metadata !3778, metadata !DIExpression()), !dbg !3780
  call void @llvm.dbg.value(metadata i1 %leaky_i, metadata !3779, metadata !DIExpression(DW_OP_LLVM_convert, 1, DW_ATE_unsigned, DW_OP_LLVM_convert, 8, DW_ATE_unsigned, DW_OP_stack_value)), !dbg !3780
  ret void, !dbg !3781
}

; Function Attrs: mustprogress nounwind willreturn
define linkonce_odr dso_local void @_ZN18AC_AttitudeControl26set_hover_roll_trim_scalarEf(%class.AC_AttitudeControl* nonnull dereferenceable(301) %this, float %scalar) unnamed_addr #7 comdat align 16 !dbg !3782 {
entry:
  call void @llvm.dbg.value(metadata %class.AC_AttitudeControl* %this, metadata !3787, metadata !DIExpression()), !dbg !3789
  call void @llvm.dbg.value(metadata float %scalar, metadata !3788, metadata !DIExpression()), !dbg !3789
  ret void, !dbg !3790
}

; Function Attrs: mustprogress nounwind willreturn
define linkonce_odr dso_local float @_ZN18AC_AttitudeControl16get_roll_trim_cdEv(%class.AC_AttitudeControl* nonnull dereferenceable(301) %this) unnamed_addr #7 comdat align 16 !dbg !3791 {
entry:
  call void @llvm.dbg.value(metadata %class.AC_AttitudeControl* %this, metadata !3796, metadata !DIExpression()), !dbg !3797
  ret float 0.000000e+00, !dbg !3798
}

; Function Attrs: mustprogress nounwind willreturn
define linkonce_odr dso_local void @_ZN18AC_AttitudeControl34passthrough_bf_roll_pitch_rate_yawEfff(%class.AC_AttitudeControl* nonnull dereferenceable(301) %this, float %roll_passthrough, float %pitch_passthrough, float %yaw_rate_bf_cds) unnamed_addr #7 comdat align 16 !dbg !3799 {
entry:
  call void @llvm.dbg.value(metadata %class.AC_AttitudeControl* %this, metadata !3804, metadata !DIExpression()), !dbg !3808
  call void @llvm.dbg.value(metadata float %roll_passthrough, metadata !3805, metadata !DIExpression()), !dbg !3808
  call void @llvm.dbg.value(metadata float %pitch_passthrough, metadata !3806, metadata !DIExpression()), !dbg !3808
  call void @llvm.dbg.value(metadata float %yaw_rate_bf_cds, metadata !3807, metadata !DIExpression()), !dbg !3808
  ret void, !dbg !3809
}

; Function Attrs: mustprogress nounwind willreturn
define linkonce_odr dso_local void @_ZN18AC_AttitudeControl19set_inverted_flightEb(%class.AC_AttitudeControl* nonnull dereferenceable(301) %this, i1 zeroext %inverted) unnamed_addr #7 comdat align 16 !dbg !3810 {
entry:
  call void @llvm.dbg.value(metadata %class.AC_AttitudeControl* %this, metadata !3813, metadata !DIExpression()), !dbg !3815
  call void @llvm.dbg.value(metadata i1 %inverted, metadata !3814, metadata !DIExpression(DW_OP_LLVM_convert, 1, DW_ATE_unsigned, DW_OP_LLVM_convert, 8, DW_ATE_unsigned, DW_OP_stack_value)), !dbg !3815
  ret void, !dbg !3816
}

; Function Attrs: mustprogress nounwind willreturn
define linkonce_odr dso_local float @_ZN18AC_AttitudeControl17get_roll_trim_radEv(%class.AC_AttitudeControl* nonnull dereferenceable(301) %this) unnamed_addr #7 comdat align 16 !dbg !3817 {
entry:
  call void @llvm.dbg.value(metadata %class.AC_AttitudeControl* %this, metadata !3820, metadata !DIExpression()), !dbg !3821
  ret float 0.000000e+00, !dbg !3822
}

declare dso_local %class.AC_PID* @_ZN6AC_PIDC2Efffffffffff(%class.AC_PID* nonnull returned dereferenceable(248), float, float, float, float, float, float, float, float, float, float, float) unnamed_addr #2

; Function Attrs: nofree nosync nounwind readnone speculatable willreturn
declare float @llvm.fabs.f32(float) #8

declare dso_local void @_ZN13LowPassFilterIfE20set_cutoff_frequencyEf(%class.LowPassFilter* nonnull dereferenceable(16), float) local_unnamed_addr #2

declare dso_local nonnull align 4 dereferenceable(4) float* @_ZNK13LowPassFilterIfE3getEv(%class.LowPassFilter* nonnull dereferenceable(16)) local_unnamed_addr #2

; Function Attrs: nobuiltin nounwind
declare dso_local void @_ZdlPv(i8*) local_unnamed_addr #9

declare dso_local void @_ZN18AC_AttitudeControl26relax_attitude_controllersEv(%class.AC_AttitudeControl* nonnull dereferenceable(301)) local_unnamed_addr #2

; Function Attrs: nofree nosync nounwind readnone speculatable willreturn
declare void @llvm.dbg.value(metadata, metadata, metadata) #8

; Function Attrs: argmemonly nofree nounwind willreturn writeonly
declare void @llvm.memset.p0i8.i64(i8* nocapture writeonly, i8, i64, i1 immarg) #10

attributes #0 = { nounwind "disable-tail-calls"="false" "frame-pointer"="none" "less-precise-fpmad"="false" "min-legal-vector-width"="0" "no-builtin-fprintf" "no-builtin-printf" "no-builtin-vfprintf" "no-builtin-vprintf" "no-infs-fp-math"="false" "no-jump-tables"="false" "no-nans-fp-math"="false" "no-signed-zeros-fp-math"="false" "no-trapping-math"="true" "stack-protector-buffer-size"="8" "target-cpu"="cortex-m7" "target-features"="+armv7e-m,+dsp,+fp-armv8d16,+fp-armv8d16sp,+fp16,+fp64,+hwdiv,+strict-align,+thumb-mode,+vfp2,+vfp2sp,+vfp3d16,+vfp3d16sp,+vfp4d16,+vfp4d16sp,-aes,-bf16,-cdecp0,-cdecp1,-cdecp2,-cdecp3,-cdecp4,-cdecp5,-cdecp6,-cdecp7,-crc,-crypto,-d32,-dotprod,-fp-armv8,-fp-armv8sp,-fp16fml,-fullfp16,-hwdiv-arm,-i8mm,-lob,-mve,-mve.fp,-neon,-ras,-sb,-sha2,-vfp3,-vfp3sp,-vfp4,-vfp4sp" "unsafe-fp-math"="false" "use-soft-float"="false" }
attributes #1 = { argmemonly nofree nosync nounwind willreturn }
attributes #2 = { "disable-tail-calls"="false" "frame-pointer"="none" "less-precise-fpmad"="false" "no-builtin-fprintf" "no-builtin-printf" "no-builtin-vfprintf" "no-builtin-vprintf" "no-infs-fp-math"="false" "no-nans-fp-math"="false" "no-signed-zeros-fp-math"="false" "no-trapping-math"="true" "stack-protector-buffer-size"="8" "target-cpu"="cortex-m7" "target-features"="+armv7e-m,+dsp,+fp-armv8d16,+fp-armv8d16sp,+fp16,+fp64,+hwdiv,+strict-align,+thumb-mode,+vfp2,+vfp2sp,+vfp3d16,+vfp3d16sp,+vfp4d16,+vfp4d16sp,-aes,-bf16,-cdecp0,-cdecp1,-cdecp2,-cdecp3,-cdecp4,-cdecp5,-cdecp6,-cdecp7,-crc,-crypto,-d32,-dotprod,-fp-armv8,-fp-armv8sp,-fp16fml,-fullfp16,-hwdiv-arm,-i8mm,-lob,-mve,-mve.fp,-neon,-ras,-sb,-sha2,-vfp3,-vfp3sp,-vfp4,-vfp4sp" "unsafe-fp-math"="false" "use-soft-float"="false" }
attributes #3 = { mustprogress nounwind "disable-tail-calls"="false" "frame-pointer"="none" "less-precise-fpmad"="false" "min-legal-vector-width"="0" "no-builtin-fprintf" "no-builtin-printf" "no-builtin-vfprintf" "no-builtin-vprintf" "no-infs-fp-math"="false" "no-jump-tables"="false" "no-nans-fp-math"="false" "no-signed-zeros-fp-math"="false" "no-trapping-math"="true" "stack-protector-buffer-size"="8" "target-cpu"="cortex-m7" "target-features"="+armv7e-m,+dsp,+fp-armv8d16,+fp-armv8d16sp,+fp16,+fp64,+hwdiv,+strict-align,+thumb-mode,+vfp2,+vfp2sp,+vfp3d16,+vfp3d16sp,+vfp4d16,+vfp4d16sp,-aes,-bf16,-cdecp0,-cdecp1,-cdecp2,-cdecp3,-cdecp4,-cdecp5,-cdecp6,-cdecp7,-crc,-crypto,-d32,-dotprod,-fp-armv8,-fp-armv8sp,-fp16fml,-fullfp16,-hwdiv-arm,-i8mm,-lob,-mve,-mve.fp,-neon,-ras,-sb,-sha2,-vfp3,-vfp3sp,-vfp4,-vfp4sp" "unsafe-fp-math"="false" "use-soft-float"="false" }
attributes #4 = { nofree nounwind willreturn "disable-tail-calls"="false" "frame-pointer"="none" "less-precise-fpmad"="false" "no-builtin-fprintf" "no-builtin-printf" "no-builtin-vfprintf" "no-builtin-vprintf" "no-infs-fp-math"="false" "no-nans-fp-math"="false" "no-signed-zeros-fp-math"="false" "no-trapping-math"="true" "stack-protector-buffer-size"="8" "target-cpu"="cortex-m7" "target-features"="+armv7e-m,+dsp,+fp-armv8d16,+fp-armv8d16sp,+fp16,+fp64,+hwdiv,+strict-align,+thumb-mode,+vfp2,+vfp2sp,+vfp3d16,+vfp3d16sp,+vfp4d16,+vfp4d16sp,-aes,-bf16,-cdecp0,-cdecp1,-cdecp2,-cdecp3,-cdecp4,-cdecp5,-cdecp6,-cdecp7,-crc,-crypto,-d32,-dotprod,-fp-armv8,-fp-armv8sp,-fp16fml,-fullfp16,-hwdiv-arm,-i8mm,-lob,-mve,-mve.fp,-neon,-ras,-sb,-sha2,-vfp3,-vfp3sp,-vfp4,-vfp4sp" "unsafe-fp-math"="false" "use-soft-float"="false" }
attributes #5 = { argmemonly nofree nounwind willreturn }
attributes #6 = { nounwind willreturn "disable-tail-calls"="false" "frame-pointer"="none" "less-precise-fpmad"="false" "min-legal-vector-width"="0" "no-builtin-fprintf" "no-builtin-printf" "no-builtin-vfprintf" "no-builtin-vprintf" "no-infs-fp-math"="false" "no-jump-tables"="false" "no-nans-fp-math"="false" "no-signed-zeros-fp-math"="false" "no-trapping-math"="true" "stack-protector-buffer-size"="8" "target-cpu"="cortex-m7" "target-features"="+armv7e-m,+dsp,+fp-armv8d16,+fp-armv8d16sp,+fp16,+fp64,+hwdiv,+strict-align,+thumb-mode,+vfp2,+vfp2sp,+vfp3d16,+vfp3d16sp,+vfp4d16,+vfp4d16sp,-aes,-bf16,-cdecp0,-cdecp1,-cdecp2,-cdecp3,-cdecp4,-cdecp5,-cdecp6,-cdecp7,-crc,-crypto,-d32,-dotprod,-fp-armv8,-fp-armv8sp,-fp16fml,-fullfp16,-hwdiv-arm,-i8mm,-lob,-mve,-mve.fp,-neon,-ras,-sb,-sha2,-vfp3,-vfp3sp,-vfp4,-vfp4sp" "unsafe-fp-math"="false" "use-soft-float"="false" }
attributes #7 = { mustprogress nounwind willreturn "disable-tail-calls"="false" "frame-pointer"="none" "less-precise-fpmad"="false" "min-legal-vector-width"="0" "no-builtin-fprintf" "no-builtin-printf" "no-builtin-vfprintf" "no-builtin-vprintf" "no-infs-fp-math"="false" "no-jump-tables"="false" "no-nans-fp-math"="false" "no-signed-zeros-fp-math"="false" "no-trapping-math"="true" "stack-protector-buffer-size"="8" "target-cpu"="cortex-m7" "target-features"="+armv7e-m,+dsp,+fp-armv8d16,+fp-armv8d16sp,+fp16,+fp64,+hwdiv,+strict-align,+thumb-mode,+vfp2,+vfp2sp,+vfp3d16,+vfp3d16sp,+vfp4d16,+vfp4d16sp,-aes,-bf16,-cdecp0,-cdecp1,-cdecp2,-cdecp3,-cdecp4,-cdecp5,-cdecp6,-cdecp7,-crc,-crypto,-d32,-dotprod,-fp-armv8,-fp-armv8sp,-fp16fml,-fullfp16,-hwdiv-arm,-i8mm,-lob,-mve,-mve.fp,-neon,-ras,-sb,-sha2,-vfp3,-vfp3sp,-vfp4,-vfp4sp" "unsafe-fp-math"="false" "use-soft-float"="false" }
attributes #8 = { nofree nosync nounwind readnone speculatable willreturn }
attributes #9 = { nobuiltin nounwind "disable-tail-calls"="false" "frame-pointer"="none" "less-precise-fpmad"="false" "no-builtin-fprintf" "no-builtin-printf" "no-builtin-vfprintf" "no-builtin-vprintf" "no-infs-fp-math"="false" "no-nans-fp-math"="false" "no-signed-zeros-fp-math"="false" "no-trapping-math"="true" "stack-protector-buffer-size"="8" "target-cpu"="cortex-m7" "target-features"="+armv7e-m,+dsp,+fp-armv8d16,+fp-armv8d16sp,+fp16,+fp64,+hwdiv,+strict-align,+thumb-mode,+vfp2,+vfp2sp,+vfp3d16,+vfp3d16sp,+vfp4d16,+vfp4d16sp,-aes,-bf16,-cdecp0,-cdecp1,-cdecp2,-cdecp3,-cdecp4,-cdecp5,-cdecp6,-cdecp7,-crc,-crypto,-d32,-dotprod,-fp-armv8,-fp-armv8sp,-fp16fml,-fullfp16,-hwdiv-arm,-i8mm,-lob,-mve,-mve.fp,-neon,-ras,-sb,-sha2,-vfp3,-vfp3sp,-vfp4,-vfp4sp" "unsafe-fp-math"="false" "use-soft-float"="false" }
attributes #10 = { argmemonly nofree nounwind willreturn writeonly }
attributes #11 = { nounwind }
attributes #12 = { nounwind "no-builtin-fprintf" "no-builtin-printf" "no-builtin-vfprintf" "no-builtin-vprintf" }
attributes #13 = { "no-builtin-fprintf" "no-builtin-printf" "no-builtin-vfprintf" "no-builtin-vprintf" }
attributes #14 = { builtin nounwind "no-builtin-fprintf" "no-builtin-printf" "no-builtin-vfprintf" "no-builtin-vprintf" }

!llvm.dbg.cu = !{!2}
!llvm.module.flags = !{!1674, !1675, !1676, !1677}
!llvm.ident = !{!1678}

!0 = !DIGlobalVariableExpression(var: !1, expr: !DIExpression())
!1 = distinct !DIGlobalVariable(name: "var_info", linkageName: "_ZN24AC_AttitudeControl_Multi8var_infoE", scope: !2, file: !3, line: 8, type: !760, isLocal: false, isDefinition: true, declaration: !1213)
!2 = distinct !DICompileUnit(language: DW_LANG_C_plus_plus_11, file: !3, producer: "clang version 12.0.0", isOptimized: true, runtimeVersion: 0, emissionKind: FullDebug, enums: !4, retainedTypes: !100, globals: !105, imports: !114, splitDebugInlining: false, nameTableKind: None)
!3 = !DIFile(filename: "../../libraries/AC_AttitudeControl/AC_AttitudeControl_Multi.cpp", directory: "/workdisk/akul/fire/fin/ardupilot/build/Pixhawk6C")
!4 = !{!5, !33, !43}
!5 = !DICompositeType(tag: DW_TAG_enumeration_type, name: "StorageType", scope: !7, file: !6, line: 54, baseType: !23, size: 32, elements: !24, identifier: "_ZTSN14StorageManager11StorageTypeE")
!6 = !DIFile(filename: "../../libraries/StorageManager/StorageManager.h", directory: "/workdisk/akul/fire/fin/ardupilot/build/Pixhawk6C")
!7 = distinct !DICompositeType(tag: DW_TAG_class_type, name: "StorageManager", file: !6, line: 51, size: 8, flags: DIFlagTypePassByValue, elements: !8, identifier: "_ZTS14StorageManager")
!8 = !{!9, !11, !17, !20}
!9 = !DIDerivedType(tag: DW_TAG_member, name: "last_io_failed", scope: !7, file: !6, line: 73, baseType: !10, flags: DIFlagStaticMember)
!10 = !DIBasicType(name: "bool", size: 8, encoding: DW_ATE_boolean)
!11 = !DIDerivedType(tag: DW_TAG_member, name: "layout", scope: !7, file: !6, line: 82, baseType: !12, flags: DIFlagStaticMember)
!12 = !DICompositeType(tag: DW_TAG_array_type, baseType: !13, size: 1152, elements: !15)
!13 = !DIDerivedType(tag: DW_TAG_const_type, baseType: !14)
!14 = !DICompositeType(tag: DW_TAG_structure_type, name: "StorageArea", scope: !7, file: !6, line: 75, size: 64, flags: DIFlagFwdDecl, identifier: "_ZTSN14StorageManager11StorageAreaE")
!15 = !{!16}
!16 = !DISubrange(count: 18)
!17 = !DISubprogram(name: "erase", linkageName: "_ZN14StorageManager5eraseEv", scope: !7, file: !6, line: 66, type: !18, scopeLine: 66, flags: DIFlagPublic | DIFlagPrototyped | DIFlagStaticMember, spFlags: DISPFlagOptimized)
!18 = !DISubroutineType(types: !19)
!19 = !{null}
!20 = !DISubprogram(name: "storage_failed", linkageName: "_ZN14StorageManager14storage_failedEv", scope: !7, file: !6, line: 68, type: !21, scopeLine: 68, flags: DIFlagPublic | DIFlagPrototyped | DIFlagStaticMember, spFlags: DISPFlagOptimized)
!21 = !DISubroutineType(types: !22)
!22 = !{!10}
!23 = !DIBasicType(name: "unsigned int", size: 32, encoding: DW_ATE_unsigned)
!24 = !{!25, !26, !27, !28, !29, !30, !31, !32}
!25 = !DIEnumerator(name: "StorageParam", value: 0, isUnsigned: true)
!26 = !DIEnumerator(name: "StorageFence", value: 1, isUnsigned: true)
!27 = !DIEnumerator(name: "StorageRally", value: 2, isUnsigned: true)
!28 = !DIEnumerator(name: "StorageMission", value: 3, isUnsigned: true)
!29 = !DIEnumerator(name: "StorageKeys", value: 4, isUnsigned: true)
!30 = !DIEnumerator(name: "StorageBindInfo", value: 5, isUnsigned: true)
!31 = !DIEnumerator(name: "StorageCANDNA", value: 6, isUnsigned: true)
!32 = !DIEnumerator(name: "StorageParamBak", value: 7, isUnsigned: true)
!33 = !DICompositeType(tag: DW_TAG_enumeration_type, name: "ap_var_type", file: !34, line: 176, baseType: !23, size: 32, elements: !35, identifier: "_ZTS11ap_var_type")
!34 = !DIFile(filename: "../../libraries/AP_Param/AP_Param.h", directory: "/workdisk/akul/fire/fin/ardupilot/build/Pixhawk6C")
!35 = !{!36, !37, !38, !39, !40, !41, !42}
!36 = !DIEnumerator(name: "AP_PARAM_NONE", value: 0, isUnsigned: true)
!37 = !DIEnumerator(name: "AP_PARAM_INT8", value: 1, isUnsigned: true)
!38 = !DIEnumerator(name: "AP_PARAM_INT16", value: 2, isUnsigned: true)
!39 = !DIEnumerator(name: "AP_PARAM_INT32", value: 3, isUnsigned: true)
!40 = !DIEnumerator(name: "AP_PARAM_FLOAT", value: 4, isUnsigned: true)
!41 = !DIEnumerator(name: "AP_PARAM_VECTOR3F", value: 5, isUnsigned: true)
!42 = !DIEnumerator(name: "AP_PARAM_GROUP", value: 6, isUnsigned: true)
!43 = !DICompositeType(tag: DW_TAG_enumeration_type, name: "Rotation", file: !44, line: 27, baseType: !45, size: 8, elements: !50, identifier: "_ZTS8Rotation")
!44 = !DIFile(filename: "../../libraries/AP_Math/rotations.h", directory: "/workdisk/akul/fire/fin/ardupilot/build/Pixhawk6C")
!45 = !DIDerivedType(tag: DW_TAG_typedef, name: "uint8_t", file: !46, line: 24, baseType: !47)
!46 = !DIFile(filename: "/opt/gcc-arm-none-eabi-10-2020-q4-major/bin/../arm-none-eabi/include/sys/_stdint.h", directory: "")
!47 = !DIDerivedType(tag: DW_TAG_typedef, name: "__uint8_t", file: !48, line: 43, baseType: !49)
!48 = !DIFile(filename: "/opt/gcc-arm-none-eabi-10-2020-q4-major/bin/../arm-none-eabi/include/machine/_default_types.h", directory: "")
!49 = !DIBasicType(name: "unsigned char", size: 8, encoding: DW_ATE_unsigned_char)
!50 = !{!51, !52, !53, !54, !55, !56, !57, !58, !59, !60, !61, !62, !63, !64, !65, !66, !67, !68, !69, !70, !71, !72, !73, !74, !75, !76, !77, !78, !79, !80, !81, !82, !83, !84, !85, !86, !87, !88, !89, !90, !91, !92, !93, !94, !95, !96, !97, !98, !99}
!51 = !DIEnumerator(name: "ROTATION_NONE", value: 0, isUnsigned: true)
!52 = !DIEnumerator(name: "ROTATION_YAW_45", value: 1, isUnsigned: true)
!53 = !DIEnumerator(name: "ROTATION_YAW_90", value: 2, isUnsigned: true)
!54 = !DIEnumerator(name: "ROTATION_YAW_135", value: 3, isUnsigned: true)
!55 = !DIEnumerator(name: "ROTATION_YAW_180", value: 4, isUnsigned: true)
!56 = !DIEnumerator(name: "ROTATION_YAW_225", value: 5, isUnsigned: true)
!57 = !DIEnumerator(name: "ROTATION_YAW_270", value: 6, isUnsigned: true)
!58 = !DIEnumerator(name: "ROTATION_YAW_315", value: 7, isUnsigned: true)
!59 = !DIEnumerator(name: "ROTATION_ROLL_180", value: 8, isUnsigned: true)
!60 = !DIEnumerator(name: "ROTATION_ROLL_180_YAW_45", value: 9, isUnsigned: true)
!61 = !DIEnumerator(name: "ROTATION_ROLL_180_YAW_90", value: 10, isUnsigned: true)
!62 = !DIEnumerator(name: "ROTATION_ROLL_180_YAW_135", value: 11, isUnsigned: true)
!63 = !DIEnumerator(name: "ROTATION_PITCH_180", value: 12, isUnsigned: true)
!64 = !DIEnumerator(name: "ROTATION_ROLL_180_YAW_225", value: 13, isUnsigned: true)
!65 = !DIEnumerator(name: "ROTATION_ROLL_180_YAW_270", value: 14, isUnsigned: true)
!66 = !DIEnumerator(name: "ROTATION_ROLL_180_YAW_315", value: 15, isUnsigned: true)
!67 = !DIEnumerator(name: "ROTATION_ROLL_90", value: 16, isUnsigned: true)
!68 = !DIEnumerator(name: "ROTATION_ROLL_90_YAW_45", value: 17, isUnsigned: true)
!69 = !DIEnumerator(name: "ROTATION_ROLL_90_YAW_90", value: 18, isUnsigned: true)
!70 = !DIEnumerator(name: "ROTATION_ROLL_90_YAW_135", value: 19, isUnsigned: true)
!71 = !DIEnumerator(name: "ROTATION_ROLL_270", value: 20, isUnsigned: true)
!72 = !DIEnumerator(name: "ROTATION_ROLL_270_YAW_45", value: 21, isUnsigned: true)
!73 = !DIEnumerator(name: "ROTATION_ROLL_270_YAW_90", value: 22, isUnsigned: true)
!74 = !DIEnumerator(name: "ROTATION_ROLL_270_YAW_135", value: 23, isUnsigned: true)
!75 = !DIEnumerator(name: "ROTATION_PITCH_90", value: 24, isUnsigned: true)
!76 = !DIEnumerator(name: "ROTATION_PITCH_270", value: 25, isUnsigned: true)
!77 = !DIEnumerator(name: "ROTATION_PITCH_180_YAW_90", value: 26, isUnsigned: true)
!78 = !DIEnumerator(name: "ROTATION_PITCH_180_YAW_270", value: 27, isUnsigned: true)
!79 = !DIEnumerator(name: "ROTATION_ROLL_90_PITCH_90", value: 28, isUnsigned: true)
!80 = !DIEnumerator(name: "ROTATION_ROLL_180_PITCH_90", value: 29, isUnsigned: true)
!81 = !DIEnumerator(name: "ROTATION_ROLL_270_PITCH_90", value: 30, isUnsigned: true)
!82 = !DIEnumerator(name: "ROTATION_ROLL_90_PITCH_180", value: 31, isUnsigned: true)
!83 = !DIEnumerator(name: "ROTATION_ROLL_270_PITCH_180", value: 32, isUnsigned: true)
!84 = !DIEnumerator(name: "ROTATION_ROLL_90_PITCH_270", value: 33, isUnsigned: true)
!85 = !DIEnumerator(name: "ROTATION_ROLL_180_PITCH_270", value: 34, isUnsigned: true)
!86 = !DIEnumerator(name: "ROTATION_ROLL_270_PITCH_270", value: 35, isUnsigned: true)
!87 = !DIEnumerator(name: "ROTATION_ROLL_90_PITCH_180_YAW_90", value: 36, isUnsigned: true)
!88 = !DIEnumerator(name: "ROTATION_ROLL_90_YAW_270", value: 37, isUnsigned: true)
!89 = !DIEnumerator(name: "ROTATION_ROLL_90_PITCH_68_YAW_293", value: 38, isUnsigned: true)
!90 = !DIEnumerator(name: "ROTATION_PITCH_315", value: 39, isUnsigned: true)
!91 = !DIEnumerator(name: "ROTATION_ROLL_90_PITCH_315", value: 40, isUnsigned: true)
!92 = !DIEnumerator(name: "ROTATION_PITCH_7", value: 41, isUnsigned: true)
!93 = !DIEnumerator(name: "ROTATION_ROLL_45", value: 42, isUnsigned: true)
!94 = !DIEnumerator(name: "ROTATION_ROLL_315", value: 43, isUnsigned: true)
!95 = !DIEnumerator(name: "ROTATION_MAX", value: 44, isUnsigned: true)
!96 = !DIEnumerator(name: "ROTATION_CUSTOM_OLD", value: 100, isUnsigned: true)
!97 = !DIEnumerator(name: "ROTATION_CUSTOM_1", value: 101, isUnsigned: true)
!98 = !DIEnumerator(name: "ROTATION_CUSTOM_2", value: 102, isUnsigned: true)
!99 = !DIEnumerator(name: "ROTATION_CUSTOM_END", value: 103, isUnsigned: true)
!100 = !{!101, !102, !104}
!101 = !DIBasicType(name: "float", size: 32, encoding: DW_ATE_float)
!102 = !DIDerivedType(tag: DW_TAG_typedef, name: "uint32_t", file: !46, line: 48, baseType: !103)
!103 = !DIDerivedType(tag: DW_TAG_typedef, name: "__uint32_t", file: !48, line: 79, baseType: !23)
!104 = !DIBasicType(name: "double", size: 64, encoding: DW_ATE_float)
!105 = !{!106, !110, !112, !0}
!106 = !DIGlobalVariableExpression(var: !107, expr: !DIExpression())
!107 = distinct !DIGlobalVariable(name: "DEG_TO_RAD_DOUBLE", linkageName: "_ZL17DEG_TO_RAD_DOUBLE", scope: !2, file: !108, line: 40, type: !109, isLocal: true, isDefinition: true)
!108 = !DIFile(filename: "../../libraries/AP_Math/definitions.h", directory: "/workdisk/akul/fire/fin/ardupilot/build/Pixhawk6C")
!109 = !DIDerivedType(tag: DW_TAG_const_type, baseType: !104)
!110 = !DIGlobalVariableExpression(var: !111, expr: !DIExpression(DW_OP_constu, 4569877477558837544, DW_OP_stack_value))
!111 = distinct !DIGlobalVariable(name: "WGS84_F", scope: !2, file: !108, line: 65, type: !109, isLocal: true, isDefinition: true)
!112 = !DIGlobalVariableExpression(var: !113, expr: !DIExpression())
!113 = distinct !DIGlobalVariable(name: "WGS84_E", linkageName: "_ZL7WGS84_E", scope: !2, file: !108, line: 72, type: !109, isLocal: true, isDefinition: true)
!114 = !{!115, !121, !127, !129, !133, !140, !142, !145, !147, !152, !156, !158, !160, !164, !166, !168, !170, !172, !174, !176, !178, !183, !187, !189, !191, !196, !201, !203, !205, !207, !209, !211, !213, !215, !217, !219, !221, !223, !225, !227, !229, !231, !233, !237, !239, !241, !243, !247, !249, !254, !256, !258, !260, !262, !267, !269, !276, !280, !282, !284, !288, !290, !294, !296, !298, !302, !304, !306, !308, !310, !312, !314, !318, !320, !322, !324, !326, !328, !330, !332, !336, !340, !342, !344, !346, !348, !350, !352, !354, !356, !358, !360, !362, !364, !366, !368, !370, !372, !374, !376, !378, !382, !384, !386, !388, !392, !394, !398, !400, !402, !404, !406, !410, !412, !416, !418, !420, !422, !424, !428, !430, !432, !436, !438, !440, !442, !448, !456, !458, !463, !467, !469, !471, !475, !479, !483, !485, !489, !494, !498, !502, !504, !506, !508, !510, !512, !514, !518, !522, !527, !531, !534, !537, !538, !542, !543, !547, !551, !554, !557, !560, !563, !566, !569, !572, !574, !576, !578, !580, !582, !584, !586, !588, !591, !594, !597, !600, !602, !606, !612, !618, !620, !624, !628, !632, !637, !641, !645, !649, !653, !658, !662, !666, !670, !674, !678, !682, !686, !688, !693, !697, !699, !703, !705, !713, !717, !718, !722, !726, !730, !734, !736, !740, !746, !750, !754}
!115 = !DIImportedEntity(tag: DW_TAG_imported_declaration, scope: !2, entity: !116, file: !120, line: 51)
!116 = !DIDerivedType(tag: DW_TAG_typedef, name: "nullptr_t", scope: !118, file: !117, line: 56, baseType: !119)
!117 = !DIFile(filename: "../../install/include/c++/v1/__nullptr", directory: "/workdisk/akul/fire/fin/ardupilot/build/Pixhawk6C")
!118 = !DINamespace(name: "std", scope: null)
!119 = !DIBasicType(tag: DW_TAG_unspecified_type, name: "decltype(nullptr)")
!120 = !DIFile(filename: "../../install/include/c++/v1/stddef.h", directory: "/workdisk/akul/fire/fin/ardupilot/build/Pixhawk6C")
!121 = !DIImportedEntity(tag: DW_TAG_imported_declaration, scope: !122, entity: !123, file: !126, line: 49)
!122 = !DINamespace(name: "__1", scope: !118, exportSymbols: true)
!123 = !DIDerivedType(tag: DW_TAG_typedef, name: "ptrdiff_t", file: !124, line: 35, baseType: !125)
!124 = !DIFile(filename: "dev2/llvm-12.0.0.obj/lib/clang/12.0.0/include/stddef.h", directory: "/workdisk/akul/fire")
!125 = !DIBasicType(name: "int", size: 32, encoding: DW_ATE_signed)
!126 = !DIFile(filename: "../../install/include/c++/v1/cstddef", directory: "/workdisk/akul/fire/fin/ardupilot/build/Pixhawk6C")
!127 = !DIImportedEntity(tag: DW_TAG_imported_declaration, scope: !122, entity: !128, file: !126, line: 50)
!128 = !DIDerivedType(tag: DW_TAG_typedef, name: "size_t", file: !124, line: 46, baseType: !23)
!129 = !DIImportedEntity(tag: DW_TAG_imported_declaration, scope: !122, entity: !130, file: !126, line: 53)
!130 = !DIDerivedType(tag: DW_TAG_typedef, name: "max_align_t", file: !131, line: 24, baseType: !132)
!131 = !DIFile(filename: "dev2/llvm-12.0.0.obj/lib/clang/12.0.0/include/__stddef_max_align_t.h", directory: "/workdisk/akul/fire")
!132 = !DICompositeType(tag: DW_TAG_structure_type, file: !131, line: 19, size: 128, flags: DIFlagFwdDecl, identifier: "_ZTS11max_align_t")
!133 = !DIImportedEntity(tag: DW_TAG_imported_declaration, scope: !122, entity: !134, file: !139, line: 324)
!134 = !DISubprogram(name: "isinf", linkageName: "_Z5isinfe", scope: !135, file: !135, line: 497, type: !136, flags: DIFlagPrototyped, spFlags: DISPFlagOptimized)
!135 = !DIFile(filename: "../../install/include/c++/v1/math.h", directory: "/workdisk/akul/fire/fin/ardupilot/build/Pixhawk6C")
!136 = !DISubroutineType(types: !137)
!137 = !{!10, !138}
!138 = !DIBasicType(name: "long double", size: 64, encoding: DW_ATE_float)
!139 = !DIFile(filename: "../../install/include/c++/v1/cmath", directory: "/workdisk/akul/fire/fin/ardupilot/build/Pixhawk6C")
!140 = !DIImportedEntity(tag: DW_TAG_imported_declaration, scope: !122, entity: !141, file: !139, line: 325)
!141 = !DISubprogram(name: "isnan", linkageName: "_Z5isnane", scope: !135, file: !135, line: 545, type: !136, flags: DIFlagPrototyped, spFlags: DISPFlagOptimized)
!142 = !DIImportedEntity(tag: DW_TAG_imported_declaration, scope: !122, entity: !143, file: !139, line: 335)
!143 = !DIDerivedType(tag: DW_TAG_typedef, name: "float_t", file: !144, line: 150, baseType: !101)
!144 = !DIFile(filename: "/opt/gcc-arm-none-eabi-10-2020-q4-major/bin/../arm-none-eabi/include/math.h", directory: "")
!145 = !DIImportedEntity(tag: DW_TAG_imported_declaration, scope: !122, entity: !146, file: !139, line: 336)
!146 = !DIDerivedType(tag: DW_TAG_typedef, name: "double_t", file: !144, line: 151, baseType: !104)
!147 = !DIImportedEntity(tag: DW_TAG_imported_declaration, scope: !122, entity: !148, file: !139, line: 339)
!148 = !DISubprogram(name: "abs", linkageName: "_Z3abse", scope: !149, file: !149, line: 127, type: !150, flags: DIFlagPrototyped, spFlags: DISPFlagOptimized)
!149 = !DIFile(filename: "../../install/include/c++/v1/stdlib.h", directory: "/workdisk/akul/fire/fin/ardupilot/build/Pixhawk6C")
!150 = !DISubroutineType(types: !151)
!151 = !{!138, !138}
!152 = !DIImportedEntity(tag: DW_TAG_imported_declaration, scope: !122, entity: !153, file: !139, line: 343)
!153 = !DISubprogram(name: "acosf", scope: !144, file: !144, line: 356, type: !154, flags: DIFlagPrototyped, spFlags: DISPFlagOptimized)
!154 = !DISubroutineType(types: !155)
!155 = !{!101, !101}
!156 = !DIImportedEntity(tag: DW_TAG_imported_declaration, scope: !122, entity: !157, file: !139, line: 345)
!157 = !DISubprogram(name: "asinf", scope: !144, file: !144, line: 357, type: !154, flags: DIFlagPrototyped, spFlags: DISPFlagOptimized)
!158 = !DIImportedEntity(tag: DW_TAG_imported_declaration, scope: !122, entity: !159, file: !139, line: 347)
!159 = !DISubprogram(name: "atanf", scope: !144, file: !144, line: 344, type: !154, flags: DIFlagPrototyped, spFlags: DISPFlagOptimized)
!160 = !DIImportedEntity(tag: DW_TAG_imported_declaration, scope: !122, entity: !161, file: !139, line: 349)
!161 = !DISubprogram(name: "atan2f", scope: !144, file: !144, line: 358, type: !162, flags: DIFlagPrototyped, spFlags: DISPFlagOptimized)
!162 = !DISubroutineType(types: !163)
!163 = !{!101, !101, !101}
!164 = !DIImportedEntity(tag: DW_TAG_imported_declaration, scope: !122, entity: !165, file: !139, line: 351)
!165 = !DISubprogram(name: "ceilf", scope: !144, file: !144, line: 351, type: !154, flags: DIFlagPrototyped, spFlags: DISPFlagOptimized)
!166 = !DIImportedEntity(tag: DW_TAG_imported_declaration, scope: !122, entity: !167, file: !139, line: 353)
!167 = !DISubprogram(name: "cosf", scope: !144, file: !144, line: 345, type: !154, flags: DIFlagPrototyped, spFlags: DISPFlagOptimized)
!168 = !DIImportedEntity(tag: DW_TAG_imported_declaration, scope: !122, entity: !169, file: !139, line: 355)
!169 = !DISubprogram(name: "coshf", scope: !144, file: !144, line: 359, type: !154, flags: DIFlagPrototyped, spFlags: DISPFlagOptimized)
!170 = !DIImportedEntity(tag: DW_TAG_imported_declaration, scope: !122, entity: !171, file: !139, line: 358)
!171 = !DISubprogram(name: "expf", scope: !144, file: !144, line: 361, type: !154, flags: DIFlagPrototyped, spFlags: DISPFlagOptimized)
!172 = !DIImportedEntity(tag: DW_TAG_imported_declaration, scope: !122, entity: !173, file: !139, line: 361)
!173 = !DISubprogram(name: "fabsf", scope: !144, file: !144, line: 352, type: !154, flags: DIFlagPrototyped, spFlags: DISPFlagOptimized)
!174 = !DIImportedEntity(tag: DW_TAG_imported_declaration, scope: !122, entity: !175, file: !139, line: 363)
!175 = !DISubprogram(name: "floorf", scope: !144, file: !144, line: 353, type: !154, flags: DIFlagPrototyped, spFlags: DISPFlagOptimized)
!176 = !DIImportedEntity(tag: DW_TAG_imported_declaration, scope: !122, entity: !177, file: !139, line: 366)
!177 = !DISubprogram(name: "fmodf", scope: !144, file: !144, line: 367, type: !162, flags: DIFlagPrototyped, spFlags: DISPFlagOptimized)
!178 = !DIImportedEntity(tag: DW_TAG_imported_declaration, scope: !122, entity: !179, file: !139, line: 369)
!179 = !DISubprogram(name: "frexpf", scope: !144, file: !144, line: 349, type: !180, flags: DIFlagPrototyped, spFlags: DISPFlagOptimized)
!180 = !DISubroutineType(types: !181)
!181 = !{!101, !101, !182}
!182 = !DIDerivedType(tag: DW_TAG_pointer_type, baseType: !125, size: 32)
!183 = !DIImportedEntity(tag: DW_TAG_imported_declaration, scope: !122, entity: !184, file: !139, line: 371)
!184 = !DISubprogram(name: "ldexpf", scope: !144, file: !144, line: 362, type: !185, flags: DIFlagPrototyped, spFlags: DISPFlagOptimized)
!185 = !DISubroutineType(types: !186)
!186 = !{!101, !101, !125}
!187 = !DIImportedEntity(tag: DW_TAG_imported_declaration, scope: !122, entity: !188, file: !139, line: 374)
!188 = !DISubprogram(name: "logf", scope: !144, file: !144, line: 363, type: !154, flags: DIFlagPrototyped, spFlags: DISPFlagOptimized)
!189 = !DIImportedEntity(tag: DW_TAG_imported_declaration, scope: !122, entity: !190, file: !139, line: 377)
!190 = !DISubprogram(name: "log10f", scope: !144, file: !144, line: 364, type: !154, flags: DIFlagPrototyped, spFlags: DISPFlagOptimized)
!191 = !DIImportedEntity(tag: DW_TAG_imported_declaration, scope: !122, entity: !192, file: !139, line: 378)
!192 = !DISubprogram(name: "modf", linkageName: "_Z4modfePe", scope: !135, file: !135, line: 974, type: !193, flags: DIFlagPrototyped, spFlags: DISPFlagOptimized)
!193 = !DISubroutineType(types: !194)
!194 = !{!138, !138, !195}
!195 = !DIDerivedType(tag: DW_TAG_pointer_type, baseType: !138, size: 32)
!196 = !DIImportedEntity(tag: DW_TAG_imported_declaration, scope: !122, entity: !197, file: !139, line: 379)
!197 = !DISubprogram(name: "modff", scope: !144, file: !144, line: 350, type: !198, flags: DIFlagPrototyped, spFlags: DISPFlagOptimized)
!198 = !DISubroutineType(types: !199)
!199 = !{!101, !101, !200}
!200 = !DIDerivedType(tag: DW_TAG_pointer_type, baseType: !101, size: 32)
!201 = !DIImportedEntity(tag: DW_TAG_imported_declaration, scope: !122, entity: !202, file: !139, line: 382)
!202 = !DISubprogram(name: "powf", scope: !144, file: !144, line: 365, type: !162, flags: DIFlagPrototyped, spFlags: DISPFlagOptimized)
!203 = !DIImportedEntity(tag: DW_TAG_imported_declaration, scope: !122, entity: !204, file: !139, line: 385)
!204 = !DISubprogram(name: "sinf", scope: !144, file: !144, line: 346, type: !154, flags: DIFlagPrototyped, spFlags: DISPFlagOptimized)
!205 = !DIImportedEntity(tag: DW_TAG_imported_declaration, scope: !122, entity: !206, file: !139, line: 387)
!206 = !DISubprogram(name: "sinhf", scope: !144, file: !144, line: 360, type: !154, flags: DIFlagPrototyped, spFlags: DISPFlagOptimized)
!207 = !DIImportedEntity(tag: DW_TAG_imported_declaration, scope: !122, entity: !208, file: !139, line: 390)
!208 = !DISubprogram(name: "sqrtf", scope: !144, file: !144, line: 366, type: !154, flags: DIFlagPrototyped, spFlags: DISPFlagOptimized)
!209 = !DIImportedEntity(tag: DW_TAG_imported_declaration, scope: !122, entity: !210, file: !139, line: 392)
!210 = !DISubprogram(name: "tanf", scope: !144, file: !144, line: 347, type: !154, flags: DIFlagPrototyped, spFlags: DISPFlagOptimized)
!211 = !DIImportedEntity(tag: DW_TAG_imported_declaration, scope: !122, entity: !212, file: !139, line: 395)
!212 = !DISubprogram(name: "tanhf", scope: !144, file: !144, line: 348, type: !154, flags: DIFlagPrototyped, spFlags: DISPFlagOptimized)
!213 = !DIImportedEntity(tag: DW_TAG_imported_declaration, scope: !122, entity: !214, file: !139, line: 398)
!214 = !DISubprogram(name: "acoshf", scope: !144, file: !144, line: 403, type: !154, flags: DIFlagPrototyped, spFlags: DISPFlagOptimized)
!215 = !DIImportedEntity(tag: DW_TAG_imported_declaration, scope: !122, entity: !216, file: !139, line: 400)
!216 = !DISubprogram(name: "asinhf", scope: !144, file: !144, line: 394, type: !154, flags: DIFlagPrototyped, spFlags: DISPFlagOptimized)
!217 = !DIImportedEntity(tag: DW_TAG_imported_declaration, scope: !122, entity: !218, file: !139, line: 402)
!218 = !DISubprogram(name: "atanhf", scope: !144, file: !144, line: 404, type: !154, flags: DIFlagPrototyped, spFlags: DISPFlagOptimized)
!219 = !DIImportedEntity(tag: DW_TAG_imported_declaration, scope: !122, entity: !220, file: !139, line: 404)
!220 = !DISubprogram(name: "cbrtf", scope: !144, file: !144, line: 395, type: !154, flags: DIFlagPrototyped, spFlags: DISPFlagOptimized)
!221 = !DIImportedEntity(tag: DW_TAG_imported_declaration, scope: !122, entity: !222, file: !139, line: 407)
!222 = !DISubprogram(name: "copysignf", scope: !144, file: !144, line: 390, type: !162, flags: DIFlagPrototyped, spFlags: DISPFlagOptimized)
!223 = !DIImportedEntity(tag: DW_TAG_imported_declaration, scope: !122, entity: !224, file: !139, line: 410)
!224 = !DISubprogram(name: "erff", scope: !144, file: !144, line: 408, type: !154, flags: DIFlagPrototyped, spFlags: DISPFlagOptimized)
!225 = !DIImportedEntity(tag: DW_TAG_imported_declaration, scope: !122, entity: !226, file: !139, line: 412)
!226 = !DISubprogram(name: "erfcf", scope: !144, file: !144, line: 409, type: !154, flags: DIFlagPrototyped, spFlags: DISPFlagOptimized)
!227 = !DIImportedEntity(tag: DW_TAG_imported_declaration, scope: !122, entity: !228, file: !139, line: 414)
!228 = !DISubprogram(name: "exp2f", scope: !144, file: !144, line: 372, type: !154, flags: DIFlagPrototyped, spFlags: DISPFlagOptimized)
!229 = !DIImportedEntity(tag: DW_TAG_imported_declaration, scope: !122, entity: !230, file: !139, line: 416)
!230 = !DISubprogram(name: "expm1f", scope: !144, file: !144, line: 400, type: !154, flags: DIFlagPrototyped, spFlags: DISPFlagOptimized)
!231 = !DIImportedEntity(tag: DW_TAG_imported_declaration, scope: !122, entity: !232, file: !139, line: 418)
!232 = !DISubprogram(name: "fdimf", scope: !144, file: !144, line: 383, type: !162, flags: DIFlagPrototyped, spFlags: DISPFlagOptimized)
!233 = !DIImportedEntity(tag: DW_TAG_imported_declaration, scope: !122, entity: !234, file: !139, line: 419)
!234 = !DISubprogram(name: "fmaf", scope: !144, file: !144, line: 386, type: !235, flags: DIFlagPrototyped, spFlags: DISPFlagOptimized)
!235 = !DISubroutineType(types: !236)
!236 = !{!101, !101, !101, !101}
!237 = !DIImportedEntity(tag: DW_TAG_imported_declaration, scope: !122, entity: !238, file: !139, line: 422)
!238 = !DISubprogram(name: "fmaxf", scope: !144, file: !144, line: 384, type: !162, flags: DIFlagPrototyped, spFlags: DISPFlagOptimized)
!239 = !DIImportedEntity(tag: DW_TAG_imported_declaration, scope: !122, entity: !240, file: !139, line: 424)
!240 = !DISubprogram(name: "fminf", scope: !144, file: !144, line: 385, type: !162, flags: DIFlagPrototyped, spFlags: DISPFlagOptimized)
!241 = !DIImportedEntity(tag: DW_TAG_imported_declaration, scope: !122, entity: !242, file: !139, line: 426)
!242 = !DISubprogram(name: "hypotf", scope: !144, file: !144, line: 411, type: !162, flags: DIFlagPrototyped, spFlags: DISPFlagOptimized)
!243 = !DIImportedEntity(tag: DW_TAG_imported_declaration, scope: !122, entity: !244, file: !139, line: 428)
!244 = !DISubprogram(name: "ilogbf", scope: !144, file: !144, line: 392, type: !245, flags: DIFlagPrototyped, spFlags: DISPFlagOptimized)
!245 = !DISubroutineType(types: !246)
!246 = !{!125, !101}
!247 = !DIImportedEntity(tag: DW_TAG_imported_declaration, scope: !122, entity: !248, file: !139, line: 430)
!248 = !DISubprogram(name: "lgammaf", scope: !144, file: !144, line: 407, type: !154, flags: DIFlagPrototyped, spFlags: DISPFlagOptimized)
!249 = !DIImportedEntity(tag: DW_TAG_imported_declaration, scope: !122, entity: !250, file: !139, line: 432)
!250 = !DISubprogram(name: "llrintf", scope: !144, file: !144, line: 377, type: !251, flags: DIFlagPrototyped, spFlags: DISPFlagOptimized)
!251 = !DISubroutineType(types: !252)
!252 = !{!253, !101}
!253 = !DIBasicType(name: "long long int", size: 64, encoding: DW_ATE_signed)
!254 = !DIImportedEntity(tag: DW_TAG_imported_declaration, scope: !122, entity: !255, file: !139, line: 434)
!255 = !DISubprogram(name: "llroundf", scope: !144, file: !144, line: 380, type: !251, flags: DIFlagPrototyped, spFlags: DISPFlagOptimized)
!256 = !DIImportedEntity(tag: DW_TAG_imported_declaration, scope: !122, entity: !257, file: !139, line: 436)
!257 = !DISubprogram(name: "log1pf", scope: !144, file: !144, line: 399, type: !154, flags: DIFlagPrototyped, spFlags: DISPFlagOptimized)
!258 = !DIImportedEntity(tag: DW_TAG_imported_declaration, scope: !122, entity: !259, file: !139, line: 438)
!259 = !DISubprogram(name: "log2f", scope: !144, file: !144, line: 410, type: !154, flags: DIFlagPrototyped, spFlags: DISPFlagOptimized)
!260 = !DIImportedEntity(tag: DW_TAG_imported_declaration, scope: !122, entity: !261, file: !139, line: 440)
!261 = !DISubprogram(name: "logbf", scope: !144, file: !144, line: 391, type: !154, flags: DIFlagPrototyped, spFlags: DISPFlagOptimized)
!262 = !DIImportedEntity(tag: DW_TAG_imported_declaration, scope: !122, entity: !263, file: !139, line: 442)
!263 = !DISubprogram(name: "lrintf", scope: !144, file: !144, line: 376, type: !264, flags: DIFlagPrototyped, spFlags: DISPFlagOptimized)
!264 = !DISubroutineType(types: !265)
!265 = !{!266, !101}
!266 = !DIBasicType(name: "long int", size: 32, encoding: DW_ATE_signed)
!267 = !DIImportedEntity(tag: DW_TAG_imported_declaration, scope: !122, entity: !268, file: !139, line: 444)
!268 = !DISubprogram(name: "lroundf", scope: !144, file: !144, line: 379, type: !264, flags: DIFlagPrototyped, spFlags: DISPFlagOptimized)
!269 = !DIImportedEntity(tag: DW_TAG_imported_declaration, scope: !122, entity: !270, file: !139, line: 446)
!270 = !DISubprogram(name: "nan", scope: !144, file: !144, line: 291, type: !271, flags: DIFlagPrototyped, spFlags: DISPFlagOptimized)
!271 = !DISubroutineType(types: !272)
!272 = !{!104, !273}
!273 = !DIDerivedType(tag: DW_TAG_pointer_type, baseType: !274, size: 32)
!274 = !DIDerivedType(tag: DW_TAG_const_type, baseType: !275)
!275 = !DIBasicType(name: "char", size: 8, encoding: DW_ATE_signed_char)
!276 = !DIImportedEntity(tag: DW_TAG_imported_declaration, scope: !122, entity: !277, file: !139, line: 447)
!277 = !DISubprogram(name: "nanf", scope: !144, file: !144, line: 389, type: !278, flags: DIFlagPrototyped, spFlags: DISPFlagOptimized)
!278 = !DISubroutineType(types: !279)
!279 = !{!101, !273}
!280 = !DIImportedEntity(tag: DW_TAG_imported_declaration, scope: !122, entity: !281, file: !139, line: 450)
!281 = !DISubprogram(name: "nearbyintf", scope: !144, file: !144, line: 375, type: !154, flags: DIFlagPrototyped, spFlags: DISPFlagOptimized)
!282 = !DIImportedEntity(tag: DW_TAG_imported_declaration, scope: !122, entity: !283, file: !139, line: 452)
!283 = !DISubprogram(name: "nextafterf", scope: !144, file: !144, line: 396, type: !162, flags: DIFlagPrototyped, spFlags: DISPFlagOptimized)
!284 = !DIImportedEntity(tag: DW_TAG_imported_declaration, scope: !122, entity: !285, file: !139, line: 454)
!285 = !DISubprogram(name: "nexttowardf", scope: !144, file: !144, line: 459, type: !286, flags: DIFlagPrototyped, spFlags: DISPFlagOptimized)
!286 = !DISubroutineType(types: !287)
!287 = !{!101, !101, !138}
!288 = !DIImportedEntity(tag: DW_TAG_imported_declaration, scope: !122, entity: !289, file: !139, line: 456)
!289 = !DISubprogram(name: "remainderf", scope: !144, file: !144, line: 405, type: !162, flags: DIFlagPrototyped, spFlags: DISPFlagOptimized)
!290 = !DIImportedEntity(tag: DW_TAG_imported_declaration, scope: !122, entity: !291, file: !139, line: 458)
!291 = !DISubprogram(name: "remquof", scope: !144, file: !144, line: 382, type: !292, flags: DIFlagPrototyped, spFlags: DISPFlagOptimized)
!292 = !DISubroutineType(types: !293)
!293 = !{!101, !101, !101, !182}
!294 = !DIImportedEntity(tag: DW_TAG_imported_declaration, scope: !122, entity: !295, file: !139, line: 460)
!295 = !DISubprogram(name: "rintf", scope: !144, file: !144, line: 397, type: !154, flags: DIFlagPrototyped, spFlags: DISPFlagOptimized)
!296 = !DIImportedEntity(tag: DW_TAG_imported_declaration, scope: !122, entity: !297, file: !139, line: 462)
!297 = !DISubprogram(name: "roundf", scope: !144, file: !144, line: 378, type: !154, flags: DIFlagPrototyped, spFlags: DISPFlagOptimized)
!298 = !DIImportedEntity(tag: DW_TAG_imported_declaration, scope: !122, entity: !299, file: !139, line: 464)
!299 = !DISubprogram(name: "scalblnf", scope: !144, file: !144, line: 373, type: !300, flags: DIFlagPrototyped, spFlags: DISPFlagOptimized)
!300 = !DISubroutineType(types: !301)
!301 = !{!101, !101, !266}
!302 = !DIImportedEntity(tag: DW_TAG_imported_declaration, scope: !122, entity: !303, file: !139, line: 466)
!303 = !DISubprogram(name: "scalbnf", scope: !144, file: !144, line: 398, type: !185, flags: DIFlagPrototyped, spFlags: DISPFlagOptimized)
!304 = !DIImportedEntity(tag: DW_TAG_imported_declaration, scope: !122, entity: !305, file: !139, line: 468)
!305 = !DISubprogram(name: "tgammaf", scope: !144, file: !144, line: 374, type: !154, flags: DIFlagPrototyped, spFlags: DISPFlagOptimized)
!306 = !DIImportedEntity(tag: DW_TAG_imported_declaration, scope: !122, entity: !307, file: !139, line: 470)
!307 = !DISubprogram(name: "truncf", scope: !144, file: !144, line: 381, type: !154, flags: DIFlagPrototyped, spFlags: DISPFlagOptimized)
!308 = !DIImportedEntity(tag: DW_TAG_imported_declaration, scope: !122, entity: !309, file: !139, line: 472)
!309 = !DISubprogram(name: "acosl", scope: !144, file: !144, line: 438, type: !150, flags: DIFlagPrototyped, spFlags: DISPFlagOptimized)
!310 = !DIImportedEntity(tag: DW_TAG_imported_declaration, scope: !122, entity: !311, file: !139, line: 473)
!311 = !DISubprogram(name: "asinl", scope: !144, file: !144, line: 439, type: !150, flags: DIFlagPrototyped, spFlags: DISPFlagOptimized)
!312 = !DIImportedEntity(tag: DW_TAG_imported_declaration, scope: !122, entity: !313, file: !139, line: 474)
!313 = !DISubprogram(name: "atanl", scope: !144, file: !144, line: 422, type: !150, flags: DIFlagPrototyped, spFlags: DISPFlagOptimized)
!314 = !DIImportedEntity(tag: DW_TAG_imported_declaration, scope: !122, entity: !315, file: !139, line: 475)
!315 = !DISubprogram(name: "atan2l", scope: !144, file: !144, line: 440, type: !316, flags: DIFlagPrototyped, spFlags: DISPFlagOptimized)
!316 = !DISubroutineType(types: !317)
!317 = !{!138, !138, !138}
!318 = !DIImportedEntity(tag: DW_TAG_imported_declaration, scope: !122, entity: !319, file: !139, line: 476)
!319 = !DISubprogram(name: "ceill", scope: !144, file: !144, line: 429, type: !150, flags: DIFlagPrototyped, spFlags: DISPFlagOptimized)
!320 = !DIImportedEntity(tag: DW_TAG_imported_declaration, scope: !122, entity: !321, file: !139, line: 477)
!321 = !DISubprogram(name: "cosl", scope: !144, file: !144, line: 423, type: !150, flags: DIFlagPrototyped, spFlags: DISPFlagOptimized)
!322 = !DIImportedEntity(tag: DW_TAG_imported_declaration, scope: !122, entity: !323, file: !139, line: 478)
!323 = !DISubprogram(name: "coshl", scope: !144, file: !144, line: 441, type: !150, flags: DIFlagPrototyped, spFlags: DISPFlagOptimized)
!324 = !DIImportedEntity(tag: DW_TAG_imported_declaration, scope: !122, entity: !325, file: !139, line: 479)
!325 = !DISubprogram(name: "expl", scope: !144, file: !144, line: 443, type: !150, flags: DIFlagPrototyped, spFlags: DISPFlagOptimized)
!326 = !DIImportedEntity(tag: DW_TAG_imported_declaration, scope: !122, entity: !327, file: !139, line: 480)
!327 = !DISubprogram(name: "fabsl", scope: !144, file: !144, line: 430, type: !150, flags: DIFlagPrototyped, spFlags: DISPFlagOptimized)
!328 = !DIImportedEntity(tag: DW_TAG_imported_declaration, scope: !122, entity: !329, file: !139, line: 481)
!329 = !DISubprogram(name: "floorl", scope: !144, file: !144, line: 431, type: !150, flags: DIFlagPrototyped, spFlags: DISPFlagOptimized)
!330 = !DIImportedEntity(tag: DW_TAG_imported_declaration, scope: !122, entity: !331, file: !139, line: 482)
!331 = !DISubprogram(name: "fmodl", scope: !144, file: !144, line: 449, type: !316, flags: DIFlagPrototyped, spFlags: DISPFlagOptimized)
!332 = !DIImportedEntity(tag: DW_TAG_imported_declaration, scope: !122, entity: !333, file: !139, line: 483)
!333 = !DISubprogram(name: "frexpl", scope: !144, file: !144, line: 427, type: !334, flags: DIFlagPrototyped, spFlags: DISPFlagOptimized)
!334 = !DISubroutineType(types: !335)
!335 = !{!138, !138, !182}
!336 = !DIImportedEntity(tag: DW_TAG_imported_declaration, scope: !122, entity: !337, file: !139, line: 484)
!337 = !DISubprogram(name: "ldexpl", scope: !144, file: !144, line: 444, type: !338, flags: DIFlagPrototyped, spFlags: DISPFlagOptimized)
!338 = !DISubroutineType(types: !339)
!339 = !{!138, !138, !125}
!340 = !DIImportedEntity(tag: DW_TAG_imported_declaration, scope: !122, entity: !341, file: !139, line: 485)
!341 = !DISubprogram(name: "logl", scope: !144, file: !144, line: 445, type: !150, flags: DIFlagPrototyped, spFlags: DISPFlagOptimized)
!342 = !DIImportedEntity(tag: DW_TAG_imported_declaration, scope: !122, entity: !343, file: !139, line: 486)
!343 = !DISubprogram(name: "log10l", scope: !144, file: !144, line: 446, type: !150, flags: DIFlagPrototyped, spFlags: DISPFlagOptimized)
!344 = !DIImportedEntity(tag: DW_TAG_imported_declaration, scope: !122, entity: !345, file: !139, line: 487)
!345 = !DISubprogram(name: "modfl", scope: !144, file: !144, line: 428, type: !193, flags: DIFlagPrototyped, spFlags: DISPFlagOptimized)
!346 = !DIImportedEntity(tag: DW_TAG_imported_declaration, scope: !122, entity: !347, file: !139, line: 488)
!347 = !DISubprogram(name: "powl", scope: !144, file: !144, line: 447, type: !316, flags: DIFlagPrototyped, spFlags: DISPFlagOptimized)
!348 = !DIImportedEntity(tag: DW_TAG_imported_declaration, scope: !122, entity: !349, file: !139, line: 489)
!349 = !DISubprogram(name: "sinl", scope: !144, file: !144, line: 424, type: !150, flags: DIFlagPrototyped, spFlags: DISPFlagOptimized)
!350 = !DIImportedEntity(tag: DW_TAG_imported_declaration, scope: !122, entity: !351, file: !139, line: 490)
!351 = !DISubprogram(name: "sinhl", scope: !144, file: !144, line: 442, type: !150, flags: DIFlagPrototyped, spFlags: DISPFlagOptimized)
!352 = !DIImportedEntity(tag: DW_TAG_imported_declaration, scope: !122, entity: !353, file: !139, line: 491)
!353 = !DISubprogram(name: "sqrtl", scope: !144, file: !144, line: 448, type: !150, flags: DIFlagPrototyped, spFlags: DISPFlagOptimized)
!354 = !DIImportedEntity(tag: DW_TAG_imported_declaration, scope: !122, entity: !355, file: !139, line: 492)
!355 = !DISubprogram(name: "tanl", scope: !144, file: !144, line: 425, type: !150, flags: DIFlagPrototyped, spFlags: DISPFlagOptimized)
!356 = !DIImportedEntity(tag: DW_TAG_imported_declaration, scope: !122, entity: !357, file: !139, line: 494)
!357 = !DISubprogram(name: "tanhl", scope: !144, file: !144, line: 426, type: !150, flags: DIFlagPrototyped, spFlags: DISPFlagOptimized)
!358 = !DIImportedEntity(tag: DW_TAG_imported_declaration, scope: !122, entity: !359, file: !139, line: 495)
!359 = !DISubprogram(name: "acoshl", scope: !144, file: !144, line: 482, type: !150, flags: DIFlagPrototyped, spFlags: DISPFlagOptimized)
!360 = !DIImportedEntity(tag: DW_TAG_imported_declaration, scope: !122, entity: !361, file: !139, line: 496)
!361 = !DISubprogram(name: "asinhl", scope: !144, file: !144, line: 456, type: !150, flags: DIFlagPrototyped, spFlags: DISPFlagOptimized)
!362 = !DIImportedEntity(tag: DW_TAG_imported_declaration, scope: !122, entity: !363, file: !139, line: 497)
!363 = !DISubprogram(name: "atanhl", scope: !144, file: !144, line: 483, type: !150, flags: DIFlagPrototyped, spFlags: DISPFlagOptimized)
!364 = !DIImportedEntity(tag: DW_TAG_imported_declaration, scope: !122, entity: !365, file: !139, line: 498)
!365 = !DISubprogram(name: "cbrtl", scope: !144, file: !144, line: 457, type: !150, flags: DIFlagPrototyped, spFlags: DISPFlagOptimized)
!366 = !DIImportedEntity(tag: DW_TAG_imported_declaration, scope: !122, entity: !367, file: !139, line: 500)
!367 = !DISubprogram(name: "copysignl", scope: !144, file: !144, line: 453, type: !316, flags: DIFlagPrototyped, spFlags: DISPFlagOptimized)
!368 = !DIImportedEntity(tag: DW_TAG_imported_declaration, scope: !122, entity: !369, file: !139, line: 502)
!369 = !DISubprogram(name: "erfl", scope: !144, file: !144, line: 486, type: !150, flags: DIFlagPrototyped, spFlags: DISPFlagOptimized)
!370 = !DIImportedEntity(tag: DW_TAG_imported_declaration, scope: !122, entity: !371, file: !139, line: 503)
!371 = !DISubprogram(name: "erfcl", scope: !144, file: !144, line: 487, type: !150, flags: DIFlagPrototyped, spFlags: DISPFlagOptimized)
!372 = !DIImportedEntity(tag: DW_TAG_imported_declaration, scope: !122, entity: !373, file: !139, line: 504)
!373 = !DISubprogram(name: "exp2l", scope: !144, file: !144, line: 466, type: !150, flags: DIFlagPrototyped, spFlags: DISPFlagOptimized)
!374 = !DIImportedEntity(tag: DW_TAG_imported_declaration, scope: !122, entity: !375, file: !139, line: 505)
!375 = !DISubprogram(name: "expm1l", scope: !144, file: !144, line: 433, type: !150, flags: DIFlagPrototyped, spFlags: DISPFlagOptimized)
!376 = !DIImportedEntity(tag: DW_TAG_imported_declaration, scope: !122, entity: !377, file: !139, line: 506)
!377 = !DISubprogram(name: "fdiml", scope: !144, file: !144, line: 477, type: !316, flags: DIFlagPrototyped, spFlags: DISPFlagOptimized)
!378 = !DIImportedEntity(tag: DW_TAG_imported_declaration, scope: !122, entity: !379, file: !139, line: 507)
!379 = !DISubprogram(name: "fmal", scope: !144, file: !144, line: 480, type: !380, flags: DIFlagPrototyped, spFlags: DISPFlagOptimized)
!380 = !DISubroutineType(types: !381)
!381 = !{!138, !138, !138, !138}
!382 = !DIImportedEntity(tag: DW_TAG_imported_declaration, scope: !122, entity: !383, file: !139, line: 508)
!383 = !DISubprogram(name: "fmaxl", scope: !144, file: !144, line: 478, type: !316, flags: DIFlagPrototyped, spFlags: DISPFlagOptimized)
!384 = !DIImportedEntity(tag: DW_TAG_imported_declaration, scope: !122, entity: !385, file: !139, line: 509)
!385 = !DISubprogram(name: "fminl", scope: !144, file: !144, line: 479, type: !316, flags: DIFlagPrototyped, spFlags: DISPFlagOptimized)
!386 = !DIImportedEntity(tag: DW_TAG_imported_declaration, scope: !122, entity: !387, file: !139, line: 510)
!387 = !DISubprogram(name: "hypotl", scope: !144, file: !144, line: 450, type: !316, flags: DIFlagPrototyped, spFlags: DISPFlagOptimized)
!388 = !DIImportedEntity(tag: DW_TAG_imported_declaration, scope: !122, entity: !389, file: !139, line: 511)
!389 = !DISubprogram(name: "ilogbl", scope: !144, file: !144, line: 455, type: !390, flags: DIFlagPrototyped, spFlags: DISPFlagOptimized)
!390 = !DISubroutineType(types: !391)
!391 = !{!125, !138}
!392 = !DIImportedEntity(tag: DW_TAG_imported_declaration, scope: !122, entity: !393, file: !139, line: 512)
!393 = !DISubprogram(name: "lgammal", scope: !144, file: !144, line: 485, type: !150, flags: DIFlagPrototyped, spFlags: DISPFlagOptimized)
!394 = !DIImportedEntity(tag: DW_TAG_imported_declaration, scope: !122, entity: !395, file: !139, line: 513)
!395 = !DISubprogram(name: "llrintl", scope: !144, file: !144, line: 471, type: !396, flags: DIFlagPrototyped, spFlags: DISPFlagOptimized)
!396 = !DISubroutineType(types: !397)
!397 = !{!253, !138}
!398 = !DIImportedEntity(tag: DW_TAG_imported_declaration, scope: !122, entity: !399, file: !139, line: 514)
!399 = !DISubprogram(name: "llroundl", scope: !144, file: !144, line: 474, type: !396, flags: DIFlagPrototyped, spFlags: DISPFlagOptimized)
!400 = !DIImportedEntity(tag: DW_TAG_imported_declaration, scope: !122, entity: !401, file: !139, line: 515)
!401 = !DISubprogram(name: "log1pl", scope: !144, file: !144, line: 432, type: !150, flags: DIFlagPrototyped, spFlags: DISPFlagOptimized)
!402 = !DIImportedEntity(tag: DW_TAG_imported_declaration, scope: !122, entity: !403, file: !139, line: 516)
!403 = !DISubprogram(name: "log2l", scope: !144, file: !144, line: 463, type: !150, flags: DIFlagPrototyped, spFlags: DISPFlagOptimized)
!404 = !DIImportedEntity(tag: DW_TAG_imported_declaration, scope: !122, entity: !405, file: !139, line: 517)
!405 = !DISubprogram(name: "logbl", scope: !144, file: !144, line: 462, type: !150, flags: DIFlagPrototyped, spFlags: DISPFlagOptimized)
!406 = !DIImportedEntity(tag: DW_TAG_imported_declaration, scope: !122, entity: !407, file: !139, line: 518)
!407 = !DISubprogram(name: "lrintl", scope: !144, file: !144, line: 470, type: !408, flags: DIFlagPrototyped, spFlags: DISPFlagOptimized)
!408 = !DISubroutineType(types: !409)
!409 = !{!266, !138}
!410 = !DIImportedEntity(tag: DW_TAG_imported_declaration, scope: !122, entity: !411, file: !139, line: 519)
!411 = !DISubprogram(name: "lroundl", scope: !144, file: !144, line: 473, type: !408, flags: DIFlagPrototyped, spFlags: DISPFlagOptimized)
!412 = !DIImportedEntity(tag: DW_TAG_imported_declaration, scope: !122, entity: !413, file: !139, line: 520)
!413 = !DISubprogram(name: "nanl", scope: !144, file: !144, line: 454, type: !414, flags: DIFlagPrototyped, spFlags: DISPFlagOptimized)
!414 = !DISubroutineType(types: !415)
!415 = !{!138, !273}
!416 = !DIImportedEntity(tag: DW_TAG_imported_declaration, scope: !122, entity: !417, file: !139, line: 521)
!417 = !DISubprogram(name: "nearbyintl", scope: !144, file: !144, line: 469, type: !150, flags: DIFlagPrototyped, spFlags: DISPFlagOptimized)
!418 = !DIImportedEntity(tag: DW_TAG_imported_declaration, scope: !122, entity: !419, file: !139, line: 522)
!419 = !DISubprogram(name: "nextafterl", scope: !144, file: !144, line: 458, type: !316, flags: DIFlagPrototyped, spFlags: DISPFlagOptimized)
!420 = !DIImportedEntity(tag: DW_TAG_imported_declaration, scope: !122, entity: !421, file: !139, line: 523)
!421 = !DISubprogram(name: "nexttowardl", scope: !144, file: !144, line: 461, type: !316, flags: DIFlagPrototyped, spFlags: DISPFlagOptimized)
!422 = !DIImportedEntity(tag: DW_TAG_imported_declaration, scope: !122, entity: !423, file: !139, line: 524)
!423 = !DISubprogram(name: "remainderl", scope: !144, file: !144, line: 484, type: !316, flags: DIFlagPrototyped, spFlags: DISPFlagOptimized)
!424 = !DIImportedEntity(tag: DW_TAG_imported_declaration, scope: !122, entity: !425, file: !139, line: 525)
!425 = !DISubprogram(name: "remquol", scope: !144, file: !144, line: 476, type: !426, flags: DIFlagPrototyped, spFlags: DISPFlagOptimized)
!426 = !DISubroutineType(types: !427)
!427 = !{!138, !138, !138, !182}
!428 = !DIImportedEntity(tag: DW_TAG_imported_declaration, scope: !122, entity: !429, file: !139, line: 526)
!429 = !DISubprogram(name: "rintl", scope: !144, file: !144, line: 464, type: !150, flags: DIFlagPrototyped, spFlags: DISPFlagOptimized)
!430 = !DIImportedEntity(tag: DW_TAG_imported_declaration, scope: !122, entity: !431, file: !139, line: 527)
!431 = !DISubprogram(name: "roundl", scope: !144, file: !144, line: 472, type: !150, flags: DIFlagPrototyped, spFlags: DISPFlagOptimized)
!432 = !DIImportedEntity(tag: DW_TAG_imported_declaration, scope: !122, entity: !433, file: !139, line: 528)
!433 = !DISubprogram(name: "scalblnl", scope: !144, file: !144, line: 467, type: !434, flags: DIFlagPrototyped, spFlags: DISPFlagOptimized)
!434 = !DISubroutineType(types: !435)
!435 = !{!138, !138, !266}
!436 = !DIImportedEntity(tag: DW_TAG_imported_declaration, scope: !122, entity: !437, file: !139, line: 529)
!437 = !DISubprogram(name: "scalbnl", scope: !144, file: !144, line: 465, type: !338, flags: DIFlagPrototyped, spFlags: DISPFlagOptimized)
!438 = !DIImportedEntity(tag: DW_TAG_imported_declaration, scope: !122, entity: !439, file: !139, line: 530)
!439 = !DISubprogram(name: "tgammal", scope: !144, file: !144, line: 468, type: !150, flags: DIFlagPrototyped, spFlags: DISPFlagOptimized)
!440 = !DIImportedEntity(tag: DW_TAG_imported_declaration, scope: !122, entity: !441, file: !139, line: 531)
!441 = !DISubprogram(name: "truncl", scope: !144, file: !144, line: 475, type: !150, flags: DIFlagPrototyped, spFlags: DISPFlagOptimized)
!442 = !DIImportedEntity(tag: DW_TAG_imported_declaration, scope: !122, entity: !443, file: !447, line: 68)
!443 = !DIDerivedType(tag: DW_TAG_typedef, name: "size_t", file: !444, line: 40, baseType: !445)
!444 = !DIFile(filename: "/opt/gcc-arm-none-eabi-10-2020-q4-major/bin/../arm-none-eabi/include/strings.h", directory: "")
!445 = !DIDerivedType(tag: DW_TAG_typedef, name: "__size_t", file: !446, line: 131, baseType: !23)
!446 = !DIFile(filename: "/opt/gcc-arm-none-eabi-10-2020-q4-major/bin/../arm-none-eabi/include/sys/_types.h", directory: "")
!447 = !DIFile(filename: "../../install/include/c++/v1/cstring", directory: "/workdisk/akul/fire/fin/ardupilot/build/Pixhawk6C")
!448 = !DIImportedEntity(tag: DW_TAG_imported_declaration, scope: !122, entity: !449, file: !447, line: 69)
!449 = !DISubprogram(name: "memcpy", scope: !450, file: !450, line: 31, type: !451, flags: DIFlagPrototyped, spFlags: DISPFlagOptimized)
!450 = !DIFile(filename: "/opt/gcc-arm-none-eabi-10-2020-q4-major/bin/../arm-none-eabi/include/string.h", directory: "")
!451 = !DISubroutineType(types: !452)
!452 = !{!453, !453, !454, !443}
!453 = !DIDerivedType(tag: DW_TAG_pointer_type, baseType: null, size: 32)
!454 = !DIDerivedType(tag: DW_TAG_pointer_type, baseType: !455, size: 32)
!455 = !DIDerivedType(tag: DW_TAG_const_type, baseType: null)
!456 = !DIImportedEntity(tag: DW_TAG_imported_declaration, scope: !122, entity: !457, file: !447, line: 70)
!457 = !DISubprogram(name: "memmove", scope: !450, file: !450, line: 32, type: !451, flags: DIFlagPrototyped, spFlags: DISPFlagOptimized)
!458 = !DIImportedEntity(tag: DW_TAG_imported_declaration, scope: !122, entity: !459, file: !447, line: 71)
!459 = !DISubprogram(name: "strcpy", scope: !450, file: !450, line: 38, type: !460, flags: DIFlagPrototyped, spFlags: DISPFlagOptimized)
!460 = !DISubroutineType(types: !461)
!461 = !{!462, !462, !273}
!462 = !DIDerivedType(tag: DW_TAG_pointer_type, baseType: !275, size: 32)
!463 = !DIImportedEntity(tag: DW_TAG_imported_declaration, scope: !122, entity: !464, file: !447, line: 72)
!464 = !DISubprogram(name: "strncpy", scope: !450, file: !450, line: 44, type: !465, flags: DIFlagPrototyped, spFlags: DISPFlagOptimized)
!465 = !DISubroutineType(types: !466)
!466 = !{!462, !462, !273, !443}
!467 = !DIImportedEntity(tag: DW_TAG_imported_declaration, scope: !122, entity: !468, file: !447, line: 73)
!468 = !DISubprogram(name: "strcat", scope: !450, file: !450, line: 34, type: !460, flags: DIFlagPrototyped, spFlags: DISPFlagOptimized)
!469 = !DIImportedEntity(tag: DW_TAG_imported_declaration, scope: !122, entity: !470, file: !447, line: 74)
!470 = !DISubprogram(name: "strncat", scope: !450, file: !450, line: 42, type: !465, flags: DIFlagPrototyped, spFlags: DISPFlagOptimized)
!471 = !DIImportedEntity(tag: DW_TAG_imported_declaration, scope: !122, entity: !472, file: !447, line: 75)
!472 = !DISubprogram(name: "memcmp", scope: !450, file: !450, line: 30, type: !473, flags: DIFlagPrototyped, spFlags: DISPFlagOptimized)
!473 = !DISubroutineType(types: !474)
!474 = !{!125, !454, !454, !443}
!475 = !DIImportedEntity(tag: DW_TAG_imported_declaration, scope: !122, entity: !476, file: !447, line: 76)
!476 = !DISubprogram(name: "strcmp", scope: !450, file: !450, line: 36, type: !477, flags: DIFlagPrototyped, spFlags: DISPFlagOptimized)
!477 = !DISubroutineType(types: !478)
!478 = !{!125, !273, !273}
!479 = !DIImportedEntity(tag: DW_TAG_imported_declaration, scope: !122, entity: !480, file: !447, line: 77)
!480 = !DISubprogram(name: "strncmp", scope: !450, file: !450, line: 43, type: !481, flags: DIFlagPrototyped, spFlags: DISPFlagOptimized)
!481 = !DISubroutineType(types: !482)
!482 = !{!125, !273, !273, !443}
!483 = !DIImportedEntity(tag: DW_TAG_imported_declaration, scope: !122, entity: !484, file: !447, line: 78)
!484 = !DISubprogram(name: "strcoll", scope: !450, file: !450, line: 37, type: !477, flags: DIFlagPrototyped, spFlags: DISPFlagOptimized)
!485 = !DIImportedEntity(tag: DW_TAG_imported_declaration, scope: !122, entity: !486, file: !447, line: 79)
!486 = !DISubprogram(name: "strxfrm", scope: !450, file: !450, line: 52, type: !487, flags: DIFlagPrototyped, spFlags: DISPFlagOptimized)
!487 = !DISubroutineType(types: !488)
!488 = !{!443, !462, !273, !443}
!489 = !DIImportedEntity(tag: DW_TAG_imported_declaration, scope: !122, entity: !490, file: !447, line: 80)
!490 = !DISubprogram(name: "memchr", linkageName: "_Z6memchrUa9enable_ifILb1EEPvij", scope: !491, file: !491, line: 98, type: !492, flags: DIFlagPrototyped, spFlags: DISPFlagOptimized)
!491 = !DIFile(filename: "../../install/include/c++/v1/string.h", directory: "/workdisk/akul/fire/fin/ardupilot/build/Pixhawk6C")
!492 = !DISubroutineType(types: !493)
!493 = !{!453, !453, !125, !443}
!494 = !DIImportedEntity(tag: DW_TAG_imported_declaration, scope: !122, entity: !495, file: !447, line: 81)
!495 = !DISubprogram(name: "strchr", linkageName: "_Z6strchrUa9enable_ifILb1EEPci", scope: !491, file: !491, line: 77, type: !496, flags: DIFlagPrototyped, spFlags: DISPFlagOptimized)
!496 = !DISubroutineType(types: !497)
!497 = !{!462, !462, !125}
!498 = !DIImportedEntity(tag: DW_TAG_imported_declaration, scope: !122, entity: !499, file: !447, line: 82)
!499 = !DISubprogram(name: "strcspn", scope: !450, file: !450, line: 39, type: !500, flags: DIFlagPrototyped, spFlags: DISPFlagOptimized)
!500 = !DISubroutineType(types: !501)
!501 = !{!443, !273, !273}
!502 = !DIImportedEntity(tag: DW_TAG_imported_declaration, scope: !122, entity: !503, file: !447, line: 83)
!503 = !DISubprogram(name: "strpbrk", linkageName: "_Z7strpbrkUa9enable_ifILb1EEPcPKc", scope: !491, file: !491, line: 84, type: !460, flags: DIFlagPrototyped, spFlags: DISPFlagOptimized)
!504 = !DIImportedEntity(tag: DW_TAG_imported_declaration, scope: !122, entity: !505, file: !447, line: 84)
!505 = !DISubprogram(name: "strrchr", linkageName: "_Z7strrchrUa9enable_ifILb1EEPci", scope: !491, file: !491, line: 91, type: !496, flags: DIFlagPrototyped, spFlags: DISPFlagOptimized)
!506 = !DIImportedEntity(tag: DW_TAG_imported_declaration, scope: !122, entity: !507, file: !447, line: 85)
!507 = !DISubprogram(name: "strspn", scope: !450, file: !450, line: 47, type: !500, flags: DIFlagPrototyped, spFlags: DISPFlagOptimized)
!508 = !DIImportedEntity(tag: DW_TAG_imported_declaration, scope: !122, entity: !509, file: !447, line: 86)
!509 = !DISubprogram(name: "strstr", linkageName: "_Z6strstrUa9enable_ifILb1EEPcPKc", scope: !491, file: !491, line: 105, type: !460, flags: DIFlagPrototyped, spFlags: DISPFlagOptimized)
!510 = !DIImportedEntity(tag: DW_TAG_imported_declaration, scope: !122, entity: !511, file: !447, line: 88)
!511 = !DISubprogram(name: "strtok", scope: !450, file: !450, line: 50, type: !460, flags: DIFlagPrototyped, spFlags: DISPFlagOptimized)
!512 = !DIImportedEntity(tag: DW_TAG_imported_declaration, scope: !122, entity: !513, file: !447, line: 90)
!513 = !DISubprogram(name: "memset", scope: !450, file: !450, line: 33, type: !492, flags: DIFlagPrototyped, spFlags: DISPFlagOptimized)
!514 = !DIImportedEntity(tag: DW_TAG_imported_declaration, scope: !122, entity: !515, file: !447, line: 91)
!515 = !DISubprogram(name: "strerror", scope: !450, file: !450, line: 40, type: !516, flags: DIFlagPrototyped, spFlags: DISPFlagOptimized)
!516 = !DISubroutineType(types: !517)
!517 = !{!462, !125}
!518 = !DIImportedEntity(tag: DW_TAG_imported_declaration, scope: !122, entity: !519, file: !447, line: 92)
!519 = !DISubprogram(name: "strlen", scope: !450, file: !450, line: 41, type: !520, flags: DIFlagPrototyped, spFlags: DISPFlagOptimized)
!520 = !DISubroutineType(types: !521)
!521 = !{!443, !273}
!522 = !DIImportedEntity(tag: DW_TAG_imported_declaration, scope: !122, entity: !523, file: !526, line: 152)
!523 = !DIDerivedType(tag: DW_TAG_typedef, name: "int8_t", file: !46, line: 20, baseType: !524)
!524 = !DIDerivedType(tag: DW_TAG_typedef, name: "__int8_t", file: !48, line: 41, baseType: !525)
!525 = !DIBasicType(name: "signed char", size: 8, encoding: DW_ATE_signed_char)
!526 = !DIFile(filename: "../../install/include/c++/v1/cstdint", directory: "/workdisk/akul/fire/fin/ardupilot/build/Pixhawk6C")
!527 = !DIImportedEntity(tag: DW_TAG_imported_declaration, scope: !122, entity: !528, file: !526, line: 153)
!528 = !DIDerivedType(tag: DW_TAG_typedef, name: "int16_t", file: !46, line: 32, baseType: !529)
!529 = !DIDerivedType(tag: DW_TAG_typedef, name: "__int16_t", file: !48, line: 55, baseType: !530)
!530 = !DIBasicType(name: "short", size: 16, encoding: DW_ATE_signed)
!531 = !DIImportedEntity(tag: DW_TAG_imported_declaration, scope: !122, entity: !532, file: !526, line: 154)
!532 = !DIDerivedType(tag: DW_TAG_typedef, name: "int32_t", file: !46, line: 44, baseType: !533)
!533 = !DIDerivedType(tag: DW_TAG_typedef, name: "__int32_t", file: !48, line: 77, baseType: !125)
!534 = !DIImportedEntity(tag: DW_TAG_imported_declaration, scope: !122, entity: !535, file: !526, line: 155)
!535 = !DIDerivedType(tag: DW_TAG_typedef, name: "int64_t", file: !46, line: 56, baseType: !536)
!536 = !DIDerivedType(tag: DW_TAG_typedef, name: "__int64_t", file: !48, line: 103, baseType: !253)
!537 = !DIImportedEntity(tag: DW_TAG_imported_declaration, scope: !122, entity: !45, file: !526, line: 157)
!538 = !DIImportedEntity(tag: DW_TAG_imported_declaration, scope: !122, entity: !539, file: !526, line: 158)
!539 = !DIDerivedType(tag: DW_TAG_typedef, name: "uint16_t", file: !46, line: 36, baseType: !540)
!540 = !DIDerivedType(tag: DW_TAG_typedef, name: "__uint16_t", file: !48, line: 57, baseType: !541)
!541 = !DIBasicType(name: "unsigned short", size: 16, encoding: DW_ATE_unsigned)
!542 = !DIImportedEntity(tag: DW_TAG_imported_declaration, scope: !122, entity: !102, file: !526, line: 159)
!543 = !DIImportedEntity(tag: DW_TAG_imported_declaration, scope: !122, entity: !544, file: !526, line: 160)
!544 = !DIDerivedType(tag: DW_TAG_typedef, name: "uint64_t", file: !46, line: 60, baseType: !545)
!545 = !DIDerivedType(tag: DW_TAG_typedef, name: "__uint64_t", file: !48, line: 105, baseType: !546)
!546 = !DIBasicType(name: "long long unsigned int", size: 64, encoding: DW_ATE_unsigned)
!547 = !DIImportedEntity(tag: DW_TAG_imported_declaration, scope: !122, entity: !548, file: !526, line: 162)
!548 = !DIDerivedType(tag: DW_TAG_typedef, name: "int_least8_t", file: !549, line: 21, baseType: !550)
!549 = !DIFile(filename: "/opt/gcc-arm-none-eabi-10-2020-q4-major/bin/../arm-none-eabi/include/stdint.h", directory: "")
!550 = !DIDerivedType(tag: DW_TAG_typedef, name: "__int_least8_t", file: !48, line: 134, baseType: !525)
!551 = !DIImportedEntity(tag: DW_TAG_imported_declaration, scope: !122, entity: !552, file: !526, line: 163)
!552 = !DIDerivedType(tag: DW_TAG_typedef, name: "int_least16_t", file: !549, line: 27, baseType: !553)
!553 = !DIDerivedType(tag: DW_TAG_typedef, name: "__int_least16_t", file: !48, line: 160, baseType: !530)
!554 = !DIImportedEntity(tag: DW_TAG_imported_declaration, scope: !122, entity: !555, file: !526, line: 164)
!555 = !DIDerivedType(tag: DW_TAG_typedef, name: "int_least32_t", file: !549, line: 33, baseType: !556)
!556 = !DIDerivedType(tag: DW_TAG_typedef, name: "__int_least32_t", file: !48, line: 182, baseType: !125)
!557 = !DIImportedEntity(tag: DW_TAG_imported_declaration, scope: !122, entity: !558, file: !526, line: 165)
!558 = !DIDerivedType(tag: DW_TAG_typedef, name: "int_least64_t", file: !549, line: 39, baseType: !559)
!559 = !DIDerivedType(tag: DW_TAG_typedef, name: "__int_least64_t", file: !48, line: 200, baseType: !253)
!560 = !DIImportedEntity(tag: DW_TAG_imported_declaration, scope: !122, entity: !561, file: !526, line: 167)
!561 = !DIDerivedType(tag: DW_TAG_typedef, name: "uint_least8_t", file: !549, line: 22, baseType: !562)
!562 = !DIDerivedType(tag: DW_TAG_typedef, name: "__uint_least8_t", file: !48, line: 136, baseType: !49)
!563 = !DIImportedEntity(tag: DW_TAG_imported_declaration, scope: !122, entity: !564, file: !526, line: 168)
!564 = !DIDerivedType(tag: DW_TAG_typedef, name: "uint_least16_t", file: !549, line: 28, baseType: !565)
!565 = !DIDerivedType(tag: DW_TAG_typedef, name: "__uint_least16_t", file: !48, line: 162, baseType: !541)
!566 = !DIImportedEntity(tag: DW_TAG_imported_declaration, scope: !122, entity: !567, file: !526, line: 169)
!567 = !DIDerivedType(tag: DW_TAG_typedef, name: "uint_least32_t", file: !549, line: 34, baseType: !568)
!568 = !DIDerivedType(tag: DW_TAG_typedef, name: "__uint_least32_t", file: !48, line: 184, baseType: !23)
!569 = !DIImportedEntity(tag: DW_TAG_imported_declaration, scope: !122, entity: !570, file: !526, line: 170)
!570 = !DIDerivedType(tag: DW_TAG_typedef, name: "uint_least64_t", file: !549, line: 40, baseType: !571)
!571 = !DIDerivedType(tag: DW_TAG_typedef, name: "__uint_least64_t", file: !48, line: 202, baseType: !546)
!572 = !DIImportedEntity(tag: DW_TAG_imported_declaration, scope: !122, entity: !573, file: !526, line: 172)
!573 = !DIDerivedType(tag: DW_TAG_typedef, name: "int_fast8_t", file: !549, line: 51, baseType: !525)
!574 = !DIImportedEntity(tag: DW_TAG_imported_declaration, scope: !122, entity: !575, file: !526, line: 173)
!575 = !DIDerivedType(tag: DW_TAG_typedef, name: "int_fast16_t", file: !549, line: 61, baseType: !530)
!576 = !DIImportedEntity(tag: DW_TAG_imported_declaration, scope: !122, entity: !577, file: !526, line: 174)
!577 = !DIDerivedType(tag: DW_TAG_typedef, name: "int_fast32_t", file: !549, line: 71, baseType: !125)
!578 = !DIImportedEntity(tag: DW_TAG_imported_declaration, scope: !122, entity: !579, file: !526, line: 175)
!579 = !DIDerivedType(tag: DW_TAG_typedef, name: "int_fast64_t", file: !549, line: 81, baseType: !253)
!580 = !DIImportedEntity(tag: DW_TAG_imported_declaration, scope: !122, entity: !581, file: !526, line: 177)
!581 = !DIDerivedType(tag: DW_TAG_typedef, name: "uint_fast8_t", file: !549, line: 52, baseType: !49)
!582 = !DIImportedEntity(tag: DW_TAG_imported_declaration, scope: !122, entity: !583, file: !526, line: 178)
!583 = !DIDerivedType(tag: DW_TAG_typedef, name: "uint_fast16_t", file: !549, line: 62, baseType: !541)
!584 = !DIImportedEntity(tag: DW_TAG_imported_declaration, scope: !122, entity: !585, file: !526, line: 179)
!585 = !DIDerivedType(tag: DW_TAG_typedef, name: "uint_fast32_t", file: !549, line: 72, baseType: !23)
!586 = !DIImportedEntity(tag: DW_TAG_imported_declaration, scope: !122, entity: !587, file: !526, line: 180)
!587 = !DIDerivedType(tag: DW_TAG_typedef, name: "uint_fast64_t", file: !549, line: 82, baseType: !546)
!588 = !DIImportedEntity(tag: DW_TAG_imported_declaration, scope: !122, entity: !589, file: !526, line: 182)
!589 = !DIDerivedType(tag: DW_TAG_typedef, name: "intptr_t", file: !46, line: 77, baseType: !590)
!590 = !DIDerivedType(tag: DW_TAG_typedef, name: "__intptr_t", file: !48, line: 230, baseType: !125)
!591 = !DIImportedEntity(tag: DW_TAG_imported_declaration, scope: !122, entity: !592, file: !526, line: 183)
!592 = !DIDerivedType(tag: DW_TAG_typedef, name: "uintptr_t", file: !46, line: 82, baseType: !593)
!593 = !DIDerivedType(tag: DW_TAG_typedef, name: "__uintptr_t", file: !48, line: 232, baseType: !23)
!594 = !DIImportedEntity(tag: DW_TAG_imported_declaration, scope: !122, entity: !595, file: !526, line: 185)
!595 = !DIDerivedType(tag: DW_TAG_typedef, name: "intmax_t", file: !46, line: 67, baseType: !596)
!596 = !DIDerivedType(tag: DW_TAG_typedef, name: "__intmax_t", file: !48, line: 214, baseType: !253)
!597 = !DIImportedEntity(tag: DW_TAG_imported_declaration, scope: !122, entity: !598, file: !526, line: 186)
!598 = !DIDerivedType(tag: DW_TAG_typedef, name: "uintmax_t", file: !46, line: 72, baseType: !599)
!599 = !DIDerivedType(tag: DW_TAG_typedef, name: "__uintmax_t", file: !48, line: 222, baseType: !546)
!600 = !DIImportedEntity(tag: DW_TAG_imported_declaration, scope: !122, entity: !443, file: !601, line: 99)
!601 = !DIFile(filename: "../../install/include/c++/v1/cstdlib", directory: "/workdisk/akul/fire/fin/ardupilot/build/Pixhawk6C")
!602 = !DIImportedEntity(tag: DW_TAG_imported_declaration, scope: !122, entity: !603, file: !601, line: 100)
!603 = !DIDerivedType(tag: DW_TAG_typedef, name: "div_t", file: !604, line: 39, baseType: !605)
!604 = !DIFile(filename: "/opt/gcc-arm-none-eabi-10-2020-q4-major/bin/../arm-none-eabi/include/stdlib.h", directory: "")
!605 = !DICompositeType(tag: DW_TAG_structure_type, file: !604, line: 35, size: 64, flags: DIFlagFwdDecl, identifier: "_ZTS5div_t")
!606 = !DIImportedEntity(tag: DW_TAG_imported_declaration, scope: !122, entity: !607, file: !601, line: 101)
!607 = !DIDerivedType(tag: DW_TAG_typedef, name: "ldiv_t", file: !604, line: 45, baseType: !608)
!608 = distinct !DICompositeType(tag: DW_TAG_structure_type, file: !604, line: 41, size: 64, flags: DIFlagTypePassByValue, elements: !609, identifier: "_ZTS6ldiv_t")
!609 = !{!610, !611}
!610 = !DIDerivedType(tag: DW_TAG_member, name: "quot", scope: !608, file: !604, line: 43, baseType: !266, size: 32)
!611 = !DIDerivedType(tag: DW_TAG_member, name: "rem", scope: !608, file: !604, line: 44, baseType: !266, size: 32, offset: 32)
!612 = !DIImportedEntity(tag: DW_TAG_imported_declaration, scope: !122, entity: !613, file: !601, line: 103)
!613 = !DIDerivedType(tag: DW_TAG_typedef, name: "lldiv_t", file: !604, line: 52, baseType: !614)
!614 = distinct !DICompositeType(tag: DW_TAG_structure_type, file: !604, line: 48, size: 128, flags: DIFlagTypePassByValue, elements: !615, identifier: "_ZTS7lldiv_t")
!615 = !{!616, !617}
!616 = !DIDerivedType(tag: DW_TAG_member, name: "quot", scope: !614, file: !604, line: 50, baseType: !253, size: 64)
!617 = !DIDerivedType(tag: DW_TAG_member, name: "rem", scope: !614, file: !604, line: 51, baseType: !253, size: 64, offset: 64)
!618 = !DIImportedEntity(tag: DW_TAG_imported_declaration, scope: !122, entity: !619, file: !601, line: 105)
!619 = !DISubprogram(name: "atof", scope: !604, file: !604, line: 77, type: !271, flags: DIFlagPrototyped, spFlags: DISPFlagOptimized)
!620 = !DIImportedEntity(tag: DW_TAG_imported_declaration, scope: !122, entity: !621, file: !601, line: 106)
!621 = !DISubprogram(name: "atoi", scope: !604, file: !604, line: 81, type: !622, flags: DIFlagPrototyped, spFlags: DISPFlagOptimized)
!622 = !DISubroutineType(types: !623)
!623 = !{!125, !273}
!624 = !DIImportedEntity(tag: DW_TAG_imported_declaration, scope: !122, entity: !625, file: !601, line: 107)
!625 = !DISubprogram(name: "atol", scope: !604, file: !604, line: 83, type: !626, flags: DIFlagPrototyped, spFlags: DISPFlagOptimized)
!626 = !DISubroutineType(types: !627)
!627 = !{!266, !273}
!628 = !DIImportedEntity(tag: DW_TAG_imported_declaration, scope: !122, entity: !629, file: !601, line: 109)
!629 = !DISubprogram(name: "atoll", scope: !604, file: !604, line: 263, type: !630, flags: DIFlagPrototyped, spFlags: DISPFlagOptimized)
!630 = !DISubroutineType(types: !631)
!631 = !{!253, !273}
!632 = !DIImportedEntity(tag: DW_TAG_imported_declaration, scope: !122, entity: !633, file: !601, line: 111)
!633 = !DISubprogram(name: "strtod", scope: !604, file: !604, line: 160, type: !634, flags: DIFlagPrototyped, spFlags: DISPFlagOptimized)
!634 = !DISubroutineType(types: !635)
!635 = !{!104, !273, !636}
!636 = !DIDerivedType(tag: DW_TAG_pointer_type, baseType: !462, size: 32)
!637 = !DIImportedEntity(tag: DW_TAG_imported_declaration, scope: !122, entity: !638, file: !601, line: 112)
!638 = !DISubprogram(name: "strtof", scope: !604, file: !604, line: 163, type: !639, flags: DIFlagPrototyped, spFlags: DISPFlagOptimized)
!639 = !DISubroutineType(types: !640)
!640 = !{!101, !273, !636}
!641 = !DIImportedEntity(tag: DW_TAG_imported_declaration, scope: !122, entity: !642, file: !601, line: 113)
!642 = !DISubprogram(name: "strtold", scope: !604, file: !604, line: 324, type: !643, flags: DIFlagPrototyped, spFlags: DISPFlagOptimized)
!643 = !DISubroutineType(types: !644)
!644 = !{!138, !273, !636}
!645 = !DIImportedEntity(tag: DW_TAG_imported_declaration, scope: !122, entity: !646, file: !601, line: 114)
!646 = !DISubprogram(name: "strtol", scope: !604, file: !604, line: 171, type: !647, flags: DIFlagPrototyped, spFlags: DISPFlagOptimized)
!647 = !DISubroutineType(types: !648)
!648 = !{!266, !273, !636, !125}
!649 = !DIImportedEntity(tag: DW_TAG_imported_declaration, scope: !122, entity: !650, file: !601, line: 116)
!650 = !DISubprogram(name: "strtoll", scope: !604, file: !604, line: 269, type: !651, flags: DIFlagPrototyped, spFlags: DISPFlagOptimized)
!651 = !DISubroutineType(types: !652)
!652 = !{!253, !273, !636, !125}
!653 = !DIImportedEntity(tag: DW_TAG_imported_declaration, scope: !122, entity: !654, file: !601, line: 118)
!654 = !DISubprogram(name: "strtoul", scope: !604, file: !604, line: 173, type: !655, flags: DIFlagPrototyped, spFlags: DISPFlagOptimized)
!655 = !DISubroutineType(types: !656)
!656 = !{!657, !273, !636, !125}
!657 = !DIBasicType(name: "long unsigned int", size: 32, encoding: DW_ATE_unsigned)
!658 = !DIImportedEntity(tag: DW_TAG_imported_declaration, scope: !122, entity: !659, file: !601, line: 120)
!659 = !DISubprogram(name: "strtoull", scope: !604, file: !604, line: 273, type: !660, flags: DIFlagPrototyped, spFlags: DISPFlagOptimized)
!660 = !DISubroutineType(types: !661)
!661 = !{!546, !273, !636, !125}
!662 = !DIImportedEntity(tag: DW_TAG_imported_declaration, scope: !122, entity: !663, file: !601, line: 122)
!663 = !DISubprogram(name: "rand", scope: !604, file: !604, line: 144, type: !664, flags: DIFlagPrototyped, spFlags: DISPFlagOptimized)
!664 = !DISubroutineType(types: !665)
!665 = !{!125}
!666 = !DIImportedEntity(tag: DW_TAG_imported_declaration, scope: !122, entity: !667, file: !601, line: 123)
!667 = !DISubprogram(name: "srand", scope: !604, file: !604, line: 159, type: !668, flags: DIFlagPrototyped, spFlags: DISPFlagOptimized)
!668 = !DISubroutineType(types: !669)
!669 = !{null, !23}
!670 = !DIImportedEntity(tag: DW_TAG_imported_declaration, scope: !122, entity: !671, file: !601, line: 124)
!671 = !DISubprogram(name: "calloc", scope: !604, file: !604, line: 90, type: !672, flags: DIFlagPrototyped, spFlags: DISPFlagOptimized)
!672 = !DISubroutineType(types: !673)
!673 = !{!453, !128, !128}
!674 = !DIImportedEntity(tag: DW_TAG_imported_declaration, scope: !122, entity: !675, file: !601, line: 125)
!675 = !DISubprogram(name: "free", scope: !604, file: !604, line: 94, type: !676, flags: DIFlagPrototyped, spFlags: DISPFlagOptimized)
!676 = !DISubroutineType(types: !677)
!677 = !{null, !453}
!678 = !DIImportedEntity(tag: DW_TAG_imported_declaration, scope: !122, entity: !679, file: !601, line: 126)
!679 = !DISubprogram(name: "malloc", scope: !604, file: !604, line: 108, type: !680, flags: DIFlagPrototyped, spFlags: DISPFlagOptimized)
!680 = !DISubroutineType(types: !681)
!681 = !{!453, !128}
!682 = !DIImportedEntity(tag: DW_TAG_imported_declaration, scope: !122, entity: !683, file: !601, line: 127)
!683 = !DISubprogram(name: "realloc", scope: !604, file: !604, line: 145, type: !684, flags: DIFlagPrototyped, spFlags: DISPFlagOptimized)
!684 = !DISubroutineType(types: !685)
!685 = !{!453, !453, !128}
!686 = !DIImportedEntity(tag: DW_TAG_imported_declaration, scope: !122, entity: !687, file: !601, line: 128)
!687 = !DISubprogram(name: "abort", scope: !604, file: !604, line: 69, type: !18, flags: DIFlagPrototyped | DIFlagNoReturn, spFlags: DISPFlagOptimized)
!688 = !DIImportedEntity(tag: DW_TAG_imported_declaration, scope: !122, entity: !689, file: !601, line: 129)
!689 = !DISubprogram(name: "atexit", scope: !604, file: !604, line: 76, type: !690, flags: DIFlagPrototyped, spFlags: DISPFlagOptimized)
!690 = !DISubroutineType(types: !691)
!691 = !{!125, !692}
!692 = !DIDerivedType(tag: DW_TAG_pointer_type, baseType: !18, size: 32)
!693 = !DIImportedEntity(tag: DW_TAG_imported_declaration, scope: !122, entity: !694, file: !601, line: 130)
!694 = !DISubprogram(name: "exit", scope: !604, file: !604, line: 93, type: !695, flags: DIFlagPrototyped | DIFlagNoReturn, spFlags: DISPFlagOptimized)
!695 = !DISubroutineType(types: !696)
!696 = !{null, !125}
!697 = !DIImportedEntity(tag: DW_TAG_imported_declaration, scope: !122, entity: !698, file: !601, line: 131)
!698 = !DISubprogram(name: "_Exit", scope: !604, file: !604, line: 202, type: !695, flags: DIFlagPrototyped | DIFlagNoReturn, spFlags: DISPFlagOptimized)
!699 = !DIImportedEntity(tag: DW_TAG_imported_declaration, scope: !122, entity: !700, file: !601, line: 133)
!700 = !DISubprogram(name: "getenv", scope: !604, file: !604, line: 95, type: !701, flags: DIFlagPrototyped, spFlags: DISPFlagOptimized)
!701 = !DISubroutineType(types: !702)
!702 = !{!462, !273}
!703 = !DIImportedEntity(tag: DW_TAG_imported_declaration, scope: !122, entity: !704, file: !601, line: 134)
!704 = !DISubprogram(name: "system", scope: !604, file: !604, line: 191, type: !622, flags: DIFlagPrototyped, spFlags: DISPFlagOptimized)
!705 = !DIImportedEntity(tag: DW_TAG_imported_declaration, scope: !122, entity: !706, file: !601, line: 136)
!706 = !DISubprogram(name: "bsearch", scope: !604, file: !604, line: 85, type: !707, flags: DIFlagPrototyped, spFlags: DISPFlagOptimized)
!707 = !DISubroutineType(types: !708)
!708 = !{!453, !454, !454, !128, !128, !709}
!709 = !DIDerivedType(tag: DW_TAG_typedef, name: "__compar_fn_t", file: !604, line: 57, baseType: !710)
!710 = !DIDerivedType(tag: DW_TAG_pointer_type, baseType: !711, size: 32)
!711 = !DISubroutineType(types: !712)
!712 = !{!125, !454, !454}
!713 = !DIImportedEntity(tag: DW_TAG_imported_declaration, scope: !122, entity: !714, file: !601, line: 137)
!714 = !DISubprogram(name: "qsort", scope: !604, file: !604, line: 143, type: !715, flags: DIFlagPrototyped, spFlags: DISPFlagOptimized)
!715 = !DISubroutineType(types: !716)
!716 = !{null, !453, !128, !128, !709}
!717 = !DIImportedEntity(tag: DW_TAG_imported_declaration, scope: !122, entity: !148, file: !601, line: 138)
!718 = !DIImportedEntity(tag: DW_TAG_imported_declaration, scope: !122, entity: !719, file: !601, line: 139)
!719 = !DISubprogram(name: "labs", scope: !604, file: !604, line: 106, type: !720, flags: DIFlagPrototyped, spFlags: DISPFlagOptimized)
!720 = !DISubroutineType(types: !721)
!721 = !{!266, !266}
!722 = !DIImportedEntity(tag: DW_TAG_imported_declaration, scope: !122, entity: !723, file: !601, line: 141)
!723 = !DISubprogram(name: "llabs", scope: !604, file: !604, line: 267, type: !724, flags: DIFlagPrototyped, spFlags: DISPFlagOptimized)
!724 = !DISubroutineType(types: !725)
!725 = !{!253, !253}
!726 = !DIImportedEntity(tag: DW_TAG_imported_declaration, scope: !122, entity: !727, file: !601, line: 143)
!727 = !DISubprogram(name: "div", linkageName: "_Z3divxx", scope: !149, file: !149, line: 146, type: !728, flags: DIFlagPrototyped, spFlags: DISPFlagOptimized)
!728 = !DISubroutineType(types: !729)
!729 = !{!613, !253, !253}
!730 = !DIImportedEntity(tag: DW_TAG_imported_declaration, scope: !122, entity: !731, file: !601, line: 144)
!731 = !DISubprogram(name: "ldiv", scope: !604, file: !604, line: 107, type: !732, flags: DIFlagPrototyped, spFlags: DISPFlagOptimized)
!732 = !DISubroutineType(types: !733)
!733 = !{!607, !266, !266}
!734 = !DIImportedEntity(tag: DW_TAG_imported_declaration, scope: !122, entity: !735, file: !601, line: 146)
!735 = !DISubprogram(name: "lldiv", scope: !604, file: !604, line: 268, type: !728, flags: DIFlagPrototyped, spFlags: DISPFlagOptimized)
!736 = !DIImportedEntity(tag: DW_TAG_imported_declaration, scope: !122, entity: !737, file: !601, line: 148)
!737 = !DISubprogram(name: "mblen", scope: !604, file: !604, line: 109, type: !738, flags: DIFlagPrototyped, spFlags: DISPFlagOptimized)
!738 = !DISubroutineType(types: !739)
!739 = !{!125, !273, !128}
!740 = !DIImportedEntity(tag: DW_TAG_imported_declaration, scope: !122, entity: !741, file: !601, line: 149)
!741 = !DISubprogram(name: "mbtowc", scope: !604, file: !604, line: 111, type: !742, flags: DIFlagPrototyped, spFlags: DISPFlagOptimized)
!742 = !DISubroutineType(types: !743)
!743 = !{!125, !744, !273, !128}
!744 = !DIDerivedType(tag: DW_TAG_pointer_type, baseType: !745, size: 32)
!745 = !DIBasicType(name: "wchar_t", size: 32, encoding: DW_ATE_unsigned)
!746 = !DIImportedEntity(tag: DW_TAG_imported_declaration, scope: !122, entity: !747, file: !601, line: 150)
!747 = !DISubprogram(name: "wctomb", scope: !604, file: !604, line: 113, type: !748, flags: DIFlagPrototyped, spFlags: DISPFlagOptimized)
!748 = !DISubroutineType(types: !749)
!749 = !{!125, !462, !745}
!750 = !DIImportedEntity(tag: DW_TAG_imported_declaration, scope: !122, entity: !751, file: !601, line: 151)
!751 = !DISubprogram(name: "mbstowcs", scope: !604, file: !604, line: 115, type: !752, flags: DIFlagPrototyped, spFlags: DISPFlagOptimized)
!752 = !DISubroutineType(types: !753)
!753 = !{!128, !744, !273, !128}
!754 = !DIImportedEntity(tag: DW_TAG_imported_declaration, scope: !122, entity: !755, file: !601, line: 152)
!755 = !DISubprogram(name: "wcstombs", scope: !604, file: !604, line: 117, type: !756, flags: DIFlagPrototyped, spFlags: DISPFlagOptimized)
!756 = !DISubroutineType(types: !757)
!757 = !{!128, !462, !758, !128}
!758 = !DIDerivedType(tag: DW_TAG_pointer_type, baseType: !759, size: 32)
!759 = !DIDerivedType(tag: DW_TAG_const_type, baseType: !745)
!760 = !DICompositeType(tag: DW_TAG_array_type, baseType: !761, size: 1152, elements: !1211)
!761 = !DIDerivedType(tag: DW_TAG_const_type, baseType: !762)
!762 = distinct !DICompositeType(tag: DW_TAG_structure_type, name: "GroupInfo", scope: !763, file: !34, line: 197, size: 128, flags: DIFlagTypePassByValue, elements: !1198, identifier: "_ZTSN8AP_Param9GroupInfoE")
!763 = distinct !DICompositeType(tag: DW_TAG_class_type, name: "AP_Param", file: !34, line: 191, size: 8, flags: DIFlagTypePassByValue | DIFlagNonTrivial, elements: !764, identifier: "_ZTS8AP_Param")
!764 = !{!765, !767, !768, !770, !771, !773, !774, !775, !776, !777, !837, !838, !839, !840, !841, !842, !846, !866, !867, !869, !873, !876, !877, !878, !879, !880, !881, !882, !883, !886, !887, !890, !891, !895, !898, !899, !902, !910, !917, !922, !925, !931, !932, !936, !937, !938, !942, !945, !949, !952, !953, !956, !959, !962, !963, !966, !969, !970, !973, !974, !977, !980, !983, !986, !987, !990, !991, !997, !1000, !1003, !1006, !1009, !1012, !1015, !1018, !1019, !1022, !1025, !1028, !1029, !1032, !1035, !1036, !1039, !1040, !1043, !1044, !1045, !1046, !1049, !1052, !1055, !1058, !1061, !1065, !1068, !1071, !1074, !1077, !1082, !1086, !1089, !1092, !1099, !1102, !1105, !1115, !1118, !1121, !1124, !1125, !1130, !1134, !1137, !1141, !1144, !1150, !1154, !1157, !1161, !1164, !1170, !1173, !1176, !1177, !1180, !1183, !1184, !1187, !1188, !1191, !1194, !1195}
!765 = !DIDerivedType(tag: DW_TAG_member, name: "_singleton", scope: !763, file: !34, line: 592, baseType: !766, flags: DIFlagStaticMember)
!766 = !DIDerivedType(tag: DW_TAG_pointer_type, baseType: !763, size: 32)
!767 = !DIDerivedType(tag: DW_TAG_member, name: "sentinal_offset", scope: !763, file: !34, line: 606, baseType: !539, flags: DIFlagStaticMember)
!768 = !DIDerivedType(tag: DW_TAG_member, name: "_group_level_shift", scope: !763, file: !34, line: 630, baseType: !769, flags: DIFlagStaticMember, extraData: i8 6)
!769 = !DIDerivedType(tag: DW_TAG_const_type, baseType: !45)
!770 = !DIDerivedType(tag: DW_TAG_member, name: "_group_bits", scope: !763, file: !34, line: 631, baseType: !769, flags: DIFlagStaticMember, extraData: i8 18)
!771 = !DIDerivedType(tag: DW_TAG_member, name: "_sentinal_key", scope: !763, file: !34, line: 633, baseType: !772, flags: DIFlagStaticMember, extraData: i16 511)
!772 = !DIDerivedType(tag: DW_TAG_const_type, baseType: !539)
!773 = !DIDerivedType(tag: DW_TAG_member, name: "_sentinal_type", scope: !763, file: !34, line: 634, baseType: !769, flags: DIFlagStaticMember, extraData: i8 31)
!774 = !DIDerivedType(tag: DW_TAG_member, name: "_sentinal_group", scope: !763, file: !34, line: 635, baseType: !769, flags: DIFlagStaticMember, extraData: i8 -1)
!775 = !DIDerivedType(tag: DW_TAG_member, name: "_frame_type_flags", scope: !763, file: !34, line: 637, baseType: !539, flags: DIFlagStaticMember)
!776 = !DIDerivedType(tag: DW_TAG_member, name: "done_all_default_params", scope: !763, file: !34, line: 642, baseType: !10, flags: DIFlagStaticMember)
!777 = !DIDerivedType(tag: DW_TAG_member, name: "_storage", scope: !763, file: !34, line: 771, baseType: !778, flags: DIFlagStaticMember)
!778 = distinct !DICompositeType(tag: DW_TAG_class_type, name: "StorageAccess", file: !6, line: 91, size: 96, flags: DIFlagTypePassByValue | DIFlagNonTrivial, elements: !779, identifier: "_ZTS13StorageAccess")
!779 = !{!780, !782, !783, !786, !790, !795, !798, !801, !804, !805, !808, !811, !814, !817, !818, !821, !824, !827, !831, !834}
!780 = !DIDerivedType(tag: DW_TAG_member, name: "type", scope: !778, file: !6, line: 123, baseType: !781, size: 32)
!781 = !DIDerivedType(tag: DW_TAG_const_type, baseType: !5)
!782 = !DIDerivedType(tag: DW_TAG_member, name: "total_size", scope: !778, file: !6, line: 124, baseType: !539, size: 16, offset: 32)
!783 = !DIDerivedType(tag: DW_TAG_member, name: "file", scope: !778, file: !6, line: 140, baseType: !784, size: 32, offset: 64)
!784 = !DIDerivedType(tag: DW_TAG_pointer_type, baseType: !785, size: 32)
!785 = !DICompositeType(tag: DW_TAG_structure_type, name: "FileStorage", scope: !778, file: !6, line: 131, size: 448, flags: DIFlagFwdDecl | DIFlagNonTrivial, identifier: "_ZTSN13StorageAccess11FileStorageE")
!786 = !DISubprogram(name: "StorageAccess", scope: !778, file: !6, line: 94, type: !787, scopeLine: 94, flags: DIFlagPublic | DIFlagPrototyped, spFlags: DISPFlagOptimized)
!787 = !DISubroutineType(types: !788)
!788 = !{null, !789, !5}
!789 = !DIDerivedType(tag: DW_TAG_pointer_type, baseType: !778, size: 32, flags: DIFlagArtificial | DIFlagObjectPointer)
!790 = !DISubprogram(name: "size", linkageName: "_ZNK13StorageAccess4sizeEv", scope: !778, file: !6, line: 97, type: !791, scopeLine: 97, flags: DIFlagPublic | DIFlagPrototyped, spFlags: DISPFlagOptimized)
!791 = !DISubroutineType(types: !792)
!792 = !{!539, !793}
!793 = !DIDerivedType(tag: DW_TAG_pointer_type, baseType: !794, size: 32, flags: DIFlagArtificial | DIFlagObjectPointer)
!794 = !DIDerivedType(tag: DW_TAG_const_type, baseType: !778)
!795 = !DISubprogram(name: "read_block", linkageName: "_ZNK13StorageAccess10read_blockEPvtj", scope: !778, file: !6, line: 100, type: !796, scopeLine: 100, flags: DIFlagPublic | DIFlagPrototyped, spFlags: DISPFlagOptimized)
!796 = !DISubroutineType(types: !797)
!797 = !{!10, !793, !453, !539, !443}
!798 = !DISubprogram(name: "write_block", linkageName: "_ZNK13StorageAccess11write_blockEtPKvj", scope: !778, file: !6, line: 101, type: !799, scopeLine: 101, flags: DIFlagPublic | DIFlagPrototyped, spFlags: DISPFlagOptimized)
!799 = !DISubroutineType(types: !800)
!800 = !{!10, !793, !539, !454, !443}
!801 = !DISubprogram(name: "read_byte", linkageName: "_ZNK13StorageAccess9read_byteEt", scope: !778, file: !6, line: 104, type: !802, scopeLine: 104, flags: DIFlagPublic | DIFlagPrototyped, spFlags: DISPFlagOptimized)
!802 = !DISubroutineType(types: !803)
!803 = !{!45, !793, !539}
!804 = !DISubprogram(name: "read_uint8", linkageName: "_ZNK13StorageAccess10read_uint8Et", scope: !778, file: !6, line: 105, type: !802, scopeLine: 105, flags: DIFlagPublic | DIFlagPrototyped, spFlags: DISPFlagOptimized)
!805 = !DISubprogram(name: "read_uint16", linkageName: "_ZNK13StorageAccess11read_uint16Et", scope: !778, file: !6, line: 106, type: !806, scopeLine: 106, flags: DIFlagPublic | DIFlagPrototyped, spFlags: DISPFlagOptimized)
!806 = !DISubroutineType(types: !807)
!807 = !{!539, !793, !539}
!808 = !DISubprogram(name: "read_uint32", linkageName: "_ZNK13StorageAccess11read_uint32Et", scope: !778, file: !6, line: 107, type: !809, scopeLine: 107, flags: DIFlagPublic | DIFlagPrototyped, spFlags: DISPFlagOptimized)
!809 = !DISubroutineType(types: !810)
!810 = !{!102, !793, !539}
!811 = !DISubprogram(name: "read_float", linkageName: "_ZNK13StorageAccess10read_floatEt", scope: !778, file: !6, line: 108, type: !812, scopeLine: 108, flags: DIFlagPublic | DIFlagPrototyped, spFlags: DISPFlagOptimized)
!812 = !DISubroutineType(types: !813)
!813 = !{!101, !793, !539}
!814 = !DISubprogram(name: "write_byte", linkageName: "_ZNK13StorageAccess10write_byteEth", scope: !778, file: !6, line: 110, type: !815, scopeLine: 110, flags: DIFlagPublic | DIFlagPrototyped, spFlags: DISPFlagOptimized)
!815 = !DISubroutineType(types: !816)
!816 = !{null, !793, !539, !45}
!817 = !DISubprogram(name: "write_uint8", linkageName: "_ZNK13StorageAccess11write_uint8Eth", scope: !778, file: !6, line: 111, type: !815, scopeLine: 111, flags: DIFlagPublic | DIFlagPrototyped, spFlags: DISPFlagOptimized)
!818 = !DISubprogram(name: "write_uint16", linkageName: "_ZNK13StorageAccess12write_uint16Ett", scope: !778, file: !6, line: 112, type: !819, scopeLine: 112, flags: DIFlagPublic | DIFlagPrototyped, spFlags: DISPFlagOptimized)
!819 = !DISubroutineType(types: !820)
!820 = !{null, !793, !539, !539}
!821 = !DISubprogram(name: "write_uint32", linkageName: "_ZNK13StorageAccess12write_uint32Etj", scope: !778, file: !6, line: 113, type: !822, scopeLine: 113, flags: DIFlagPublic | DIFlagPrototyped, spFlags: DISPFlagOptimized)
!822 = !DISubroutineType(types: !823)
!823 = !{null, !793, !539, !102}
!824 = !DISubprogram(name: "write_float", linkageName: "_ZNK13StorageAccess11write_floatEtf", scope: !778, file: !6, line: 114, type: !825, scopeLine: 114, flags: DIFlagPublic | DIFlagPrototyped, spFlags: DISPFlagOptimized)
!825 = !DISubroutineType(types: !826)
!826 = !{null, !793, !539, !101}
!827 = !DISubprogram(name: "copy_area", linkageName: "_ZNK13StorageAccess9copy_areaERKS_", scope: !778, file: !6, line: 117, type: !828, scopeLine: 117, flags: DIFlagPublic | DIFlagPrototyped, spFlags: DISPFlagOptimized)
!828 = !DISubroutineType(types: !829)
!829 = !{!10, !793, !830}
!830 = !DIDerivedType(tag: DW_TAG_reference_type, baseType: !794, size: 32)
!831 = !DISubprogram(name: "attach_file", linkageName: "_ZN13StorageAccess11attach_fileEPKct", scope: !778, file: !6, line: 120, type: !832, scopeLine: 120, flags: DIFlagPublic | DIFlagPrototyped, spFlags: DISPFlagOptimized)
!832 = !DISubroutineType(types: !833)
!833 = !{!10, !789, !273, !539}
!834 = !DISubprogram(name: "flush_file", linkageName: "_ZN13StorageAccess10flush_fileEv", scope: !778, file: !6, line: 142, type: !835, scopeLine: 142, flags: DIFlagPrototyped, spFlags: DISPFlagOptimized)
!835 = !DISubroutineType(types: !836)
!836 = !{null, !789}
!837 = !DIDerivedType(tag: DW_TAG_member, name: "_storage_bak", scope: !763, file: !34, line: 772, baseType: !778, flags: DIFlagStaticMember)
!838 = !DIDerivedType(tag: DW_TAG_member, name: "_num_vars", scope: !763, file: !34, line: 773, baseType: !539, flags: DIFlagStaticMember)
!839 = !DIDerivedType(tag: DW_TAG_member, name: "_parameter_count", scope: !763, file: !34, line: 774, baseType: !539, flags: DIFlagStaticMember)
!840 = !DIDerivedType(tag: DW_TAG_member, name: "_count_marker", scope: !763, file: !34, line: 775, baseType: !539, flags: DIFlagStaticMember)
!841 = !DIDerivedType(tag: DW_TAG_member, name: "_count_marker_done", scope: !763, file: !34, line: 776, baseType: !539, flags: DIFlagStaticMember)
!842 = !DIDerivedType(tag: DW_TAG_member, name: "_count_sem", scope: !763, file: !34, line: 777, baseType: !843, flags: DIFlagStaticMember)
!843 = !DICompositeType(tag: DW_TAG_class_type, name: "Semaphore", scope: !845, file: !844, line: 25, size: 192, flags: DIFlagFwdDecl | DIFlagNonTrivial, identifier: "_ZTSN7ChibiOS9SemaphoreE")
!844 = !DIFile(filename: "../../libraries/AP_HAL_ChibiOS/Semaphores.h", directory: "/workdisk/akul/fire/fin/ardupilot/build/Pixhawk6C")
!845 = !DINamespace(name: "ChibiOS", scope: null)
!846 = !DIDerivedType(tag: DW_TAG_member, name: "_var_info", scope: !763, file: !34, line: 778, baseType: !847, flags: DIFlagStaticMember)
!847 = !DIDerivedType(tag: DW_TAG_pointer_type, baseType: !848, size: 32)
!848 = !DIDerivedType(tag: DW_TAG_const_type, baseType: !849)
!849 = distinct !DICompositeType(tag: DW_TAG_structure_type, name: "Info", scope: !763, file: !34, line: 210, size: 160, flags: DIFlagTypePassByValue, elements: !850, identifier: "_ZTSN8AP_Param4InfoE")
!850 = !{!851, !852, !853, !863, !864, !865}
!851 = !DIDerivedType(tag: DW_TAG_member, name: "name", scope: !849, file: !34, line: 211, baseType: !273, size: 32)
!852 = !DIDerivedType(tag: DW_TAG_member, name: "ptr", scope: !849, file: !34, line: 212, baseType: !454, size: 32, offset: 32)
!853 = !DIDerivedType(tag: DW_TAG_member, scope: !849, file: !34, line: 213, baseType: !854, size: 32, offset: 64)
!854 = distinct !DICompositeType(tag: DW_TAG_union_type, scope: !849, file: !34, line: 213, size: 32, flags: DIFlagExportSymbols | DIFlagTypePassByValue, elements: !855, identifier: "_ZTSN8AP_Param4InfoUt_E")
!855 = !{!856, !858, !860, !862}
!856 = !DIDerivedType(tag: DW_TAG_member, name: "group_info", scope: !854, file: !34, line: 214, baseType: !857, size: 32)
!857 = !DIDerivedType(tag: DW_TAG_pointer_type, baseType: !761, size: 32)
!858 = !DIDerivedType(tag: DW_TAG_member, name: "group_info_ptr", scope: !854, file: !34, line: 215, baseType: !859, size: 32)
!859 = !DIDerivedType(tag: DW_TAG_pointer_type, baseType: !857, size: 32)
!860 = !DIDerivedType(tag: DW_TAG_member, name: "def_value", scope: !854, file: !34, line: 216, baseType: !861, size: 32)
!861 = !DIDerivedType(tag: DW_TAG_const_type, baseType: !101)
!862 = !DIDerivedType(tag: DW_TAG_member, name: "def_value_offset", scope: !854, file: !34, line: 217, baseType: !123, size: 32)
!863 = !DIDerivedType(tag: DW_TAG_member, name: "flags", scope: !849, file: !34, line: 219, baseType: !539, size: 16, offset: 96)
!864 = !DIDerivedType(tag: DW_TAG_member, name: "key", scope: !849, file: !34, line: 220, baseType: !539, size: 16, offset: 112)
!865 = !DIDerivedType(tag: DW_TAG_member, name: "type", scope: !849, file: !34, line: 221, baseType: !45, size: 8, offset: 128)
!866 = !DIDerivedType(tag: DW_TAG_member, name: "_num_vars_base", scope: !763, file: !34, line: 782, baseType: !539, flags: DIFlagStaticMember)
!867 = !DIDerivedType(tag: DW_TAG_member, name: "_var_info_dynamic", scope: !763, file: !34, line: 783, baseType: !868, flags: DIFlagStaticMember)
!868 = !DIDerivedType(tag: DW_TAG_pointer_type, baseType: !849, size: 32)
!869 = !DIDerivedType(tag: DW_TAG_member, name: "_dynamic_table_sizes", scope: !763, file: !34, line: 787, baseType: !870, flags: DIFlagStaticMember)
!870 = !DICompositeType(tag: DW_TAG_array_type, baseType: !45, size: 80, elements: !871)
!871 = !{!872}
!872 = !DISubrange(count: 10)
!873 = !DIDerivedType(tag: DW_TAG_member, name: "param_overrides", scope: !763, file: !34, line: 803, baseType: !874, flags: DIFlagStaticMember)
!874 = !DIDerivedType(tag: DW_TAG_pointer_type, baseType: !875, size: 32)
!875 = !DICompositeType(tag: DW_TAG_structure_type, name: "param_override", scope: !763, file: !34, line: 798, size: 96, flags: DIFlagFwdDecl, identifier: "_ZTSN8AP_Param14param_overrideE")
!876 = !DIDerivedType(tag: DW_TAG_member, name: "num_param_overrides", scope: !763, file: !34, line: 804, baseType: !539, flags: DIFlagStaticMember)
!877 = !DIDerivedType(tag: DW_TAG_member, name: "param_overrides_len", scope: !763, file: !34, line: 805, baseType: !539, flags: DIFlagStaticMember)
!878 = !DIDerivedType(tag: DW_TAG_member, name: "num_read_only", scope: !763, file: !34, line: 806, baseType: !539, flags: DIFlagStaticMember)
!879 = !DIDerivedType(tag: DW_TAG_member, name: "k_EEPROM_magic0", scope: !763, file: !34, line: 809, baseType: !769, flags: DIFlagStaticMember, extraData: i8 80)
!880 = !DIDerivedType(tag: DW_TAG_member, name: "k_EEPROM_magic1", scope: !763, file: !34, line: 810, baseType: !769, flags: DIFlagStaticMember, extraData: i8 65)
!881 = !DIDerivedType(tag: DW_TAG_member, name: "k_EEPROM_revision", scope: !763, file: !34, line: 811, baseType: !769, flags: DIFlagStaticMember, extraData: i8 6)
!882 = !DIDerivedType(tag: DW_TAG_member, name: "_hide_disabled_groups", scope: !763, file: !34, line: 813, baseType: !10, flags: DIFlagStaticMember)
!883 = !DIDerivedType(tag: DW_TAG_member, name: "save_queue", scope: !763, file: !34, line: 821, baseType: !884, flags: DIFlagStaticMember)
!884 = !DICompositeType(tag: DW_TAG_class_type, name: "ObjectBuffer_TS<AP_Param::param_save>", file: !885, line: 284, flags: DIFlagFwdDecl | DIFlagNonTrivial, identifier: "_ZTS15ObjectBuffer_TSIN8AP_Param10param_saveEE")
!885 = !DIFile(filename: "../../libraries/AP_HAL/utility/RingBuffer.h", directory: "/workdisk/akul/fire/fin/ardupilot/build/Pixhawk6C")
!886 = !DIDerivedType(tag: DW_TAG_member, name: "registered_save_handler", scope: !763, file: !34, line: 822, baseType: !10, flags: DIFlagStaticMember)
!887 = !DIDerivedType(tag: DW_TAG_member, name: "default_list", scope: !763, file: !34, line: 833, baseType: !888, flags: DIFlagStaticMember)
!888 = !DIDerivedType(tag: DW_TAG_pointer_type, baseType: !889, size: 32)
!889 = !DICompositeType(tag: DW_TAG_structure_type, name: "defaults_list", scope: !763, file: !34, line: 828, size: 96, flags: DIFlagFwdDecl, identifier: "_ZTSN8AP_Param13defaults_listE")
!890 = !DISubprogram(name: "setup", linkageName: "_ZN8AP_Param5setupEv", scope: !763, file: !34, line: 239, type: !21, scopeLine: 239, flags: DIFlagPublic | DIFlagPrototyped | DIFlagStaticMember, spFlags: DISPFlagOptimized)
!891 = !DISubprogram(name: "AP_Param", scope: !763, file: !34, line: 242, type: !892, scopeLine: 242, flags: DIFlagPublic | DIFlagPrototyped, spFlags: DISPFlagOptimized)
!892 = !DISubroutineType(types: !893)
!893 = !{null, !894, !847}
!894 = !DIDerivedType(tag: DW_TAG_pointer_type, baseType: !763, size: 32, flags: DIFlagArtificial | DIFlagObjectPointer)
!895 = !DISubprogram(name: "AP_Param", scope: !763, file: !34, line: 258, type: !896, scopeLine: 258, flags: DIFlagPublic | DIFlagPrototyped, spFlags: DISPFlagOptimized)
!896 = !DISubroutineType(types: !897)
!897 = !{null, !894}
!898 = !DISubprogram(name: "initialised", linkageName: "_ZN8AP_Param11initialisedEv", scope: !763, file: !34, line: 277, type: !21, scopeLine: 277, flags: DIFlagPublic | DIFlagPrototyped | DIFlagStaticMember, spFlags: DISPFlagOptimized)
!899 = !DISubprogram(name: "group_id", linkageName: "_ZN8AP_Param8group_idEPKNS_9GroupInfoEjhh", scope: !763, file: !34, line: 285, type: !900, scopeLine: 285, flags: DIFlagPublic | DIFlagPrototyped | DIFlagStaticMember, spFlags: DISPFlagOptimized)
!900 = !DISubroutineType(types: !901)
!901 = !{!102, !857, !102, !45, !45}
!902 = !DISubprogram(name: "copy_name_info", linkageName: "_ZNK8AP_Param14copy_name_infoEPKNS_4InfoEPKNS_9GroupInfoERKNS_12GroupNestingEhPcjb", scope: !763, file: !34, line: 299, type: !903, scopeLine: 299, flags: DIFlagPublic | DIFlagPrototyped, spFlags: DISPFlagOptimized)
!903 = !DISubroutineType(types: !904)
!904 = !{null, !905, !847, !857, !907, !45, !462, !443, !10}
!905 = !DIDerivedType(tag: DW_TAG_pointer_type, baseType: !906, size: 32, flags: DIFlagArtificial | DIFlagObjectPointer)
!906 = !DIDerivedType(tag: DW_TAG_const_type, baseType: !763)
!907 = !DIDerivedType(tag: DW_TAG_reference_type, baseType: !908, size: 32)
!908 = !DIDerivedType(tag: DW_TAG_const_type, baseType: !909)
!909 = !DICompositeType(tag: DW_TAG_structure_type, name: "GroupNesting", scope: !763, file: !34, line: 270, size: 96, flags: DIFlagFwdDecl, identifier: "_ZTSN8AP_Param12GroupNestingE")
!910 = !DISubprogram(name: "copy_name_token", linkageName: "_ZNK8AP_Param15copy_name_tokenERKNS_10ParamTokenEPcjb", scope: !763, file: !34, line: 308, type: !911, scopeLine: 308, flags: DIFlagPublic | DIFlagPrototyped, spFlags: DISPFlagOptimized)
!911 = !DISubroutineType(types: !912)
!912 = !{null, !905, !913, !462, !443, !10}
!913 = !DIDerivedType(tag: DW_TAG_reference_type, baseType: !914, size: 32)
!914 = !DIDerivedType(tag: DW_TAG_const_type, baseType: !915)
!915 = !DIDerivedType(tag: DW_TAG_typedef, name: "ParamToken", scope: !763, file: !34, line: 266, baseType: !916)
!916 = !DICompositeType(tag: DW_TAG_structure_type, scope: !763, file: !34, line: 261, size: 32, flags: DIFlagFwdDecl, identifier: "_ZTSN8AP_Param10ParamTokenE")
!917 = !DISubprogram(name: "find", linkageName: "_ZN8AP_Param4findEPKcP11ap_var_typePt", scope: !763, file: !34, line: 319, type: !918, scopeLine: 319, flags: DIFlagPublic | DIFlagPrototyped | DIFlagStaticMember, spFlags: DISPFlagOptimized)
!918 = !DISubroutineType(types: !919)
!919 = !{!766, !273, !920, !921}
!920 = !DIDerivedType(tag: DW_TAG_pointer_type, baseType: !33, size: 32)
!921 = !DIDerivedType(tag: DW_TAG_pointer_type, baseType: !539, size: 32)
!922 = !DISubprogram(name: "set_default_by_name", linkageName: "_ZN8AP_Param19set_default_by_nameEPKcf", scope: !763, file: !34, line: 326, type: !923, scopeLine: 326, flags: DIFlagPublic | DIFlagPrototyped | DIFlagStaticMember, spFlags: DISPFlagOptimized)
!923 = !DISubroutineType(types: !924)
!924 = !{!10, !273, !101}
!925 = !DISubprogram(name: "set_defaults_from_table", linkageName: "_ZN8AP_Param23set_defaults_from_tableEPKNS_21defaults_table_structEh", scope: !763, file: !34, line: 332, type: !926, scopeLine: 332, flags: DIFlagPublic | DIFlagPrototyped | DIFlagStaticMember, spFlags: DISPFlagOptimized)
!926 = !DISubroutineType(types: !927)
!927 = !{null, !928, !45}
!928 = !DIDerivedType(tag: DW_TAG_pointer_type, baseType: !929, size: 32)
!929 = !DIDerivedType(tag: DW_TAG_const_type, baseType: !930)
!930 = !DICompositeType(tag: DW_TAG_structure_type, name: "defaults_table_struct", scope: !763, file: !34, line: 231, size: 64, flags: DIFlagFwdDecl, identifier: "_ZTSN8AP_Param21defaults_table_structE")
!931 = !DISubprogram(name: "set_by_name", linkageName: "_ZN8AP_Param11set_by_nameEPKcf", scope: !763, file: !34, line: 339, type: !923, scopeLine: 339, flags: DIFlagPublic | DIFlagPrototyped | DIFlagStaticMember, spFlags: DISPFlagOptimized)
!932 = !DISubprogram(name: "get", linkageName: "_ZN8AP_Param3getEPKcRf", scope: !763, file: !34, line: 346, type: !933, scopeLine: 346, flags: DIFlagPublic | DIFlagPrototyped | DIFlagStaticMember, spFlags: DISPFlagOptimized)
!933 = !DISubroutineType(types: !934)
!934 = !{!10, !273, !935}
!935 = !DIDerivedType(tag: DW_TAG_reference_type, baseType: !101, size: 32)
!936 = !DISubprogram(name: "set_and_save_by_name", linkageName: "_ZN8AP_Param20set_and_save_by_nameEPKcf", scope: !763, file: !34, line: 353, type: !923, scopeLine: 353, flags: DIFlagPublic | DIFlagPrototyped | DIFlagStaticMember, spFlags: DISPFlagOptimized)
!937 = !DISubprogram(name: "set_and_save_by_name_ifchanged", linkageName: "_ZN8AP_Param30set_and_save_by_name_ifchangedEPKcf", scope: !763, file: !34, line: 354, type: !923, scopeLine: 354, flags: DIFlagPublic | DIFlagPrototyped | DIFlagStaticMember, spFlags: DISPFlagOptimized)
!938 = !DISubprogram(name: "find_by_index", linkageName: "_ZN8AP_Param13find_by_indexEtP11ap_var_typePNS_10ParamTokenE", scope: !763, file: !34, line: 363, type: !939, scopeLine: 363, flags: DIFlagPublic | DIFlagPrototyped | DIFlagStaticMember, spFlags: DISPFlagOptimized)
!939 = !DISubroutineType(types: !940)
!940 = !{!766, !539, !920, !941}
!941 = !DIDerivedType(tag: DW_TAG_pointer_type, baseType: !915, size: 32)
!942 = !DISubprogram(name: "find_by_name", linkageName: "_ZN8AP_Param12find_by_nameEPKcP11ap_var_typePNS_10ParamTokenE", scope: !763, file: !34, line: 366, type: !943, scopeLine: 366, flags: DIFlagPublic | DIFlagPrototyped | DIFlagStaticMember, spFlags: DISPFlagOptimized)
!943 = !DISubroutineType(types: !944)
!944 = !{!766, !273, !920, !941}
!945 = !DISubprogram(name: "find_key_by_pointer_group", linkageName: "_ZN8AP_Param25find_key_by_pointer_groupEPKvtPKNS_9GroupInfoEiRt", scope: !763, file: !34, line: 373, type: !946, scopeLine: 373, flags: DIFlagPublic | DIFlagPrototyped | DIFlagStaticMember, spFlags: DISPFlagOptimized)
!946 = !DISubroutineType(types: !947)
!947 = !{!10, !454, !539, !857, !123, !948}
!948 = !DIDerivedType(tag: DW_TAG_reference_type, baseType: !539, size: 32)
!949 = !DISubprogram(name: "find_key_by_pointer", linkageName: "_ZN8AP_Param19find_key_by_pointerEPKvRt", scope: !763, file: !34, line: 375, type: !950, scopeLine: 375, flags: DIFlagPublic | DIFlagPrototyped | DIFlagStaticMember, spFlags: DISPFlagOptimized)
!950 = !DISubroutineType(types: !951)
!951 = !{!10, !454, !948}
!952 = !DISubprogram(name: "find_top_level_key_by_pointer", linkageName: "_ZN8AP_Param29find_top_level_key_by_pointerEPKvRt", scope: !763, file: !34, line: 382, type: !950, scopeLine: 382, flags: DIFlagPublic | DIFlagPrototyped | DIFlagStaticMember, spFlags: DISPFlagOptimized)
!953 = !DISubprogram(name: "find_object", linkageName: "_ZN8AP_Param11find_objectEPKc", scope: !763, file: !34, line: 391, type: !954, scopeLine: 391, flags: DIFlagPublic | DIFlagPrototyped | DIFlagStaticMember, spFlags: DISPFlagOptimized)
!954 = !DISubroutineType(types: !955)
!955 = !{!766, !273}
!956 = !DISubprogram(name: "notify", linkageName: "_ZNK8AP_Param6notifyEv", scope: !763, file: !34, line: 395, type: !957, scopeLine: 395, flags: DIFlagPublic | DIFlagPrototyped, spFlags: DISPFlagOptimized)
!957 = !DISubroutineType(types: !958)
!958 = !{null, !905}
!959 = !DISubprogram(name: "save_sync", linkageName: "_ZN8AP_Param9save_syncEbb", scope: !763, file: !34, line: 403, type: !960, scopeLine: 403, flags: DIFlagPublic | DIFlagPrototyped, spFlags: DISPFlagOptimized)
!960 = !DISubroutineType(types: !961)
!961 = !{null, !894, !10, !10}
!962 = !DISubprogram(name: "flush", linkageName: "_ZN8AP_Param5flushEv", scope: !763, file: !34, line: 407, type: !18, scopeLine: 407, flags: DIFlagPublic | DIFlagPrototyped | DIFlagStaticMember, spFlags: DISPFlagOptimized)
!963 = !DISubprogram(name: "save", linkageName: "_ZN8AP_Param4saveEb", scope: !763, file: !34, line: 413, type: !964, scopeLine: 413, flags: DIFlagPublic | DIFlagPrototyped, spFlags: DISPFlagOptimized)
!964 = !DISubroutineType(types: !965)
!965 = !{null, !894, !10}
!966 = !DISubprogram(name: "load", linkageName: "_ZN8AP_Param4loadEv", scope: !763, file: !34, line: 419, type: !967, scopeLine: 419, flags: DIFlagPublic | DIFlagPrototyped, spFlags: DISPFlagOptimized)
!967 = !DISubroutineType(types: !968)
!968 = !{!10, !894}
!969 = !DISubprogram(name: "load_all", linkageName: "_ZN8AP_Param8load_allEv", scope: !763, file: !34, line: 429, type: !21, scopeLine: 429, flags: DIFlagPublic | DIFlagPrototyped | DIFlagStaticMember, spFlags: DISPFlagOptimized)
!970 = !DISubprogram(name: "storage_used", linkageName: "_ZN8AP_Param12storage_usedEv", scope: !763, file: !34, line: 432, type: !971, scopeLine: 432, flags: DIFlagPublic | DIFlagPrototyped | DIFlagStaticMember, spFlags: DISPFlagOptimized)
!971 = !DISubroutineType(types: !972)
!972 = !{!539}
!973 = !DISubprogram(name: "storage_size", linkageName: "_ZN8AP_Param12storage_sizeEv", scope: !763, file: !34, line: 435, type: !971, scopeLine: 435, flags: DIFlagPublic | DIFlagPrototyped | DIFlagStaticMember, spFlags: DISPFlagOptimized)
!974 = !DISubprogram(name: "reload_defaults_file", linkageName: "_ZN8AP_Param20reload_defaults_fileEb", scope: !763, file: !34, line: 439, type: !975, scopeLine: 439, flags: DIFlagPublic | DIFlagPrototyped | DIFlagStaticMember, spFlags: DISPFlagOptimized)
!975 = !DISubroutineType(types: !976)
!976 = !{null, !10}
!977 = !DISubprogram(name: "load_object_from_eeprom", linkageName: "_ZN8AP_Param23load_object_from_eepromEPKvPKNS_9GroupInfoE", scope: !763, file: !34, line: 441, type: !978, scopeLine: 441, flags: DIFlagPublic | DIFlagPrototyped | DIFlagStaticMember, spFlags: DISPFlagOptimized)
!978 = !DISubroutineType(types: !979)
!979 = !{null, !454, !857}
!980 = !DISubprogram(name: "set_value", linkageName: "_ZN8AP_Param9set_valueE11ap_var_typePvf", scope: !763, file: !34, line: 444, type: !981, scopeLine: 444, flags: DIFlagPublic | DIFlagPrototyped | DIFlagStaticMember, spFlags: DISPFlagOptimized)
!981 = !DISubroutineType(types: !982)
!982 = !{null, !33, !453, !101}
!983 = !DISubprogram(name: "set_float", linkageName: "_ZN8AP_Param9set_floatEf11ap_var_type", scope: !763, file: !34, line: 449, type: !984, scopeLine: 449, flags: DIFlagPublic | DIFlagPrototyped, spFlags: DISPFlagOptimized)
!984 = !DISubroutineType(types: !985)
!985 = !{null, !894, !101, !33}
!986 = !DISubprogram(name: "setup_object_defaults", linkageName: "_ZN8AP_Param21setup_object_defaultsEPKvPKNS_9GroupInfoE", scope: !763, file: !34, line: 452, type: !978, scopeLine: 452, flags: DIFlagPublic | DIFlagPrototyped | DIFlagStaticMember, spFlags: DISPFlagOptimized)
!987 = !DISubprogram(name: "set_object_value", linkageName: "_ZN8AP_Param16set_object_valueEPKvPKNS_9GroupInfoEPKcf", scope: !763, file: !34, line: 457, type: !988, scopeLine: 457, flags: DIFlagPublic | DIFlagPrototyped | DIFlagStaticMember, spFlags: DISPFlagOptimized)
!988 = !DISubroutineType(types: !989)
!989 = !{!10, !454, !857, !273, !101}
!990 = !DISubprogram(name: "setup_sketch_defaults", linkageName: "_ZN8AP_Param21setup_sketch_defaultsEv", scope: !763, file: !34, line: 463, type: !18, scopeLine: 463, flags: DIFlagPublic | DIFlagPrototyped | DIFlagStaticMember, spFlags: DISPFlagOptimized)
!991 = !DISubprogram(name: "find_old_parameter", linkageName: "_ZN8AP_Param18find_old_parameterEPKNS_14ConversionInfoEPS_", scope: !763, file: !34, line: 466, type: !992, scopeLine: 466, flags: DIFlagPublic | DIFlagPrototyped | DIFlagStaticMember, spFlags: DISPFlagOptimized)
!992 = !DISubroutineType(types: !993)
!993 = !{!10, !994, !766}
!994 = !DIDerivedType(tag: DW_TAG_pointer_type, baseType: !995, size: 32)
!995 = !DIDerivedType(tag: DW_TAG_const_type, baseType: !996)
!996 = !DICompositeType(tag: DW_TAG_structure_type, name: "ConversionInfo", scope: !763, file: !34, line: 223, size: 128, flags: DIFlagFwdDecl, identifier: "_ZTSN8AP_Param14ConversionInfoE")
!997 = !DISubprogram(name: "convert_old_parameters", linkageName: "_ZN8AP_Param22convert_old_parametersEPKNS_14ConversionInfoEhh", scope: !763, file: !34, line: 469, type: !998, scopeLine: 469, flags: DIFlagPublic | DIFlagPrototyped | DIFlagStaticMember, spFlags: DISPFlagOptimized)
!998 = !DISubroutineType(types: !999)
!999 = !{null, !994, !45, !45}
!1000 = !DISubprogram(name: "convert_old_parameters_scaled", linkageName: "_ZN8AP_Param29convert_old_parameters_scaledEPKNS_14ConversionInfoEhfh", scope: !763, file: !34, line: 471, type: !1001, scopeLine: 471, flags: DIFlagPublic | DIFlagPrototyped | DIFlagStaticMember, spFlags: DISPFlagOptimized)
!1001 = !DISubroutineType(types: !1002)
!1002 = !{null, !994, !45, !101, !45}
!1003 = !DISubprogram(name: "convert_parameter_width", linkageName: "_ZN8AP_Param23convert_parameter_widthE11ap_var_typef", scope: !763, file: !34, line: 478, type: !1004, scopeLine: 478, flags: DIFlagPublic | DIFlagPrototyped, spFlags: DISPFlagOptimized)
!1004 = !DISubroutineType(types: !1005)
!1005 = !{!10, !894, !33, !101}
!1006 = !DISubprogram(name: "convert_centi_parameter", linkageName: "_ZN8AP_Param23convert_centi_parameterE11ap_var_type", scope: !763, file: !34, line: 479, type: !1007, scopeLine: 479, flags: DIFlagPublic | DIFlagPrototyped, spFlags: DISPFlagOptimized)
!1007 = !DISubroutineType(types: !1008)
!1008 = !{!10, !894, !33}
!1009 = !DISubprogram(name: "convert_old_parameter", linkageName: "_ZN8AP_Param21convert_old_parameterEPKNS_14ConversionInfoEfh", scope: !763, file: !34, line: 488, type: !1010, scopeLine: 488, flags: DIFlagPublic | DIFlagPrototyped | DIFlagStaticMember, spFlags: DISPFlagOptimized)
!1010 = !DISubroutineType(types: !1011)
!1011 = !{null, !994, !101, !45}
!1012 = !DISubprogram(name: "convert_class", linkageName: "_ZN8AP_Param13convert_classEtPvPKNS_9GroupInfoEttb", scope: !763, file: !34, line: 492, type: !1013, scopeLine: 492, flags: DIFlagPublic | DIFlagPrototyped | DIFlagStaticMember, spFlags: DISPFlagOptimized)
!1013 = !DISubroutineType(types: !1014)
!1014 = !{null, !539, !453, !857, !539, !539, !10}
!1015 = !DISubprogram(name: "get_param_by_index", linkageName: "_ZN8AP_Param18get_param_by_indexEPvh11ap_var_typeS0_", scope: !763, file: !34, line: 501, type: !1016, scopeLine: 501, flags: DIFlagPublic | DIFlagPrototyped | DIFlagStaticMember, spFlags: DISPFlagOptimized)
!1016 = !DISubroutineType(types: !1017)
!1017 = !{!10, !453, !45, !33, !453}
!1018 = !DISubprogram(name: "erase_all", linkageName: "_ZN8AP_Param9erase_allEv", scope: !763, file: !34, line: 505, type: !18, scopeLine: 505, flags: DIFlagPublic | DIFlagPrototyped | DIFlagStaticMember, spFlags: DISPFlagOptimized)
!1019 = !DISubprogram(name: "first", linkageName: "_ZN8AP_Param5firstEPNS_10ParamTokenEP11ap_var_typePf", scope: !763, file: !34, line: 512, type: !1020, scopeLine: 512, flags: DIFlagPublic | DIFlagPrototyped | DIFlagStaticMember, spFlags: DISPFlagOptimized)
!1020 = !DISubroutineType(types: !1021)
!1021 = !{!766, !941, !920, !200}
!1022 = !DISubprogram(name: "next", linkageName: "_ZN8AP_Param4nextEPNS_10ParamTokenEP11ap_var_type", scope: !763, file: !34, line: 516, type: !1023, scopeLine: 516, flags: DIFlagPublic | DIFlagPrototyped | DIFlagStaticMember, spFlags: DISPFlagOptimized)
!1023 = !DISubroutineType(types: !1024)
!1024 = !{!766, !941, !920}
!1025 = !DISubprogram(name: "next", linkageName: "_ZN8AP_Param4nextEPNS_10ParamTokenEP11ap_var_typebPf", scope: !763, file: !34, line: 517, type: !1026, scopeLine: 517, flags: DIFlagPublic | DIFlagPrototyped | DIFlagStaticMember, spFlags: DISPFlagOptimized)
!1026 = !DISubroutineType(types: !1027)
!1027 = !{!766, !941, !920, !10, !200}
!1028 = !DISubprogram(name: "next_scalar", linkageName: "_ZN8AP_Param11next_scalarEPNS_10ParamTokenEP11ap_var_typePf", scope: !763, file: !34, line: 521, type: !1020, scopeLine: 521, flags: DIFlagPublic | DIFlagPrototyped | DIFlagStaticMember, spFlags: DISPFlagOptimized)
!1029 = !DISubprogram(name: "type_size", linkageName: "_ZN8AP_Param9type_sizeE11ap_var_type", scope: !763, file: !34, line: 524, type: !1030, scopeLine: 524, flags: DIFlagPublic | DIFlagPrototyped | DIFlagStaticMember, spFlags: DISPFlagOptimized)
!1030 = !DISubroutineType(types: !1031)
!1031 = !{!45, !33}
!1032 = !DISubprogram(name: "cast_to_float", linkageName: "_ZNK8AP_Param13cast_to_floatE11ap_var_type", scope: !763, file: !34, line: 527, type: !1033, scopeLine: 527, flags: DIFlagPublic | DIFlagPrototyped, spFlags: DISPFlagOptimized)
!1033 = !DISubroutineType(types: !1034)
!1034 = !{!101, !905, !33}
!1035 = !DISubprogram(name: "check_var_info", linkageName: "_ZN8AP_Param14check_var_infoEv", scope: !763, file: !34, line: 530, type: !18, scopeLine: 530, flags: DIFlagPublic | DIFlagPrototyped | DIFlagStaticMember, spFlags: DISPFlagOptimized)
!1036 = !DISubprogram(name: "configured", linkageName: "_ZNK8AP_Param10configuredEv", scope: !763, file: !34, line: 533, type: !1037, scopeLine: 533, flags: DIFlagPublic | DIFlagPrototyped, spFlags: DISPFlagOptimized)
!1037 = !DISubroutineType(types: !1038)
!1038 = !{!10, !905}
!1039 = !DISubprogram(name: "is_read_only", linkageName: "_ZNK8AP_Param12is_read_onlyEv", scope: !763, file: !34, line: 536, type: !1037, scopeLine: 536, flags: DIFlagPublic | DIFlagPrototyped, spFlags: DISPFlagOptimized)
!1040 = !DISubprogram(name: "get_persistent_key", linkageName: "_ZN8AP_Param18get_persistent_keyEt", scope: !763, file: !34, line: 539, type: !1041, scopeLine: 539, flags: DIFlagPublic | DIFlagPrototyped | DIFlagStaticMember, spFlags: DISPFlagOptimized)
!1041 = !DISubroutineType(types: !1042)
!1042 = !{!539, !539}
!1043 = !DISubprogram(name: "count_parameters", linkageName: "_ZN8AP_Param16count_parametersEv", scope: !763, file: !34, line: 542, type: !971, scopeLine: 542, flags: DIFlagPublic | DIFlagPrototyped | DIFlagStaticMember, spFlags: DISPFlagOptimized)
!1044 = !DISubprogram(name: "invalidate_count", linkageName: "_ZN8AP_Param16invalidate_countEv", scope: !763, file: !34, line: 545, type: !18, scopeLine: 545, flags: DIFlagPublic | DIFlagPrototyped | DIFlagStaticMember, spFlags: DISPFlagOptimized)
!1045 = !DISubprogram(name: "set_hide_disabled_groups", linkageName: "_ZN8AP_Param24set_hide_disabled_groupsEb", scope: !763, file: !34, line: 547, type: !975, scopeLine: 547, flags: DIFlagPublic | DIFlagPrototyped | DIFlagStaticMember, spFlags: DISPFlagOptimized)
!1046 = !DISubprogram(name: "set_frame_type_flags", linkageName: "_ZN8AP_Param20set_frame_type_flagsEt", scope: !763, file: !34, line: 550, type: !1047, scopeLine: 550, flags: DIFlagPublic | DIFlagPrototyped | DIFlagStaticMember, spFlags: DISPFlagOptimized)
!1047 = !DISubroutineType(types: !1048)
!1048 = !{null, !539}
!1049 = !DISubprogram(name: "check_frame_type", linkageName: "_ZN8AP_Param16check_frame_typeEt", scope: !763, file: !34, line: 556, type: !1050, scopeLine: 556, flags: DIFlagPublic | DIFlagPrototyped | DIFlagStaticMember, spFlags: DISPFlagOptimized)
!1050 = !DISubroutineType(types: !1051)
!1051 = !{!10, !539}
!1052 = !DISubprogram(name: "get_singleton", linkageName: "_ZN8AP_Param13get_singletonEv", scope: !763, file: !34, line: 575, type: !1053, scopeLine: 575, flags: DIFlagPublic | DIFlagPrototyped | DIFlagStaticMember, spFlags: DISPFlagOptimized)
!1053 = !DISubroutineType(types: !1054)
!1054 = !{!766}
!1055 = !DISubprogram(name: "add_table", linkageName: "_ZN8AP_Param9add_tableEhPKch", scope: !763, file: !34, line: 579, type: !1056, scopeLine: 579, flags: DIFlagPublic | DIFlagPrototyped | DIFlagStaticMember, spFlags: DISPFlagOptimized)
!1056 = !DISubroutineType(types: !1057)
!1057 = !{!10, !45, !273, !45}
!1058 = !DISubprogram(name: "add_param", linkageName: "_ZN8AP_Param9add_paramEhhPKcf", scope: !763, file: !34, line: 580, type: !1059, scopeLine: 580, flags: DIFlagPublic | DIFlagPrototyped | DIFlagStaticMember, spFlags: DISPFlagOptimized)
!1059 = !DISubroutineType(types: !1060)
!1060 = !{!10, !45, !45, !273, !101}
!1061 = !DISubprogram(name: "load_int32", linkageName: "_ZN8AP_Param10load_int32EtjRi", scope: !763, file: !34, line: 581, type: !1062, scopeLine: 581, flags: DIFlagPublic | DIFlagPrototyped | DIFlagStaticMember, spFlags: DISPFlagOptimized)
!1062 = !DISubroutineType(types: !1063)
!1063 = !{!10, !539, !102, !1064}
!1064 = !DIDerivedType(tag: DW_TAG_reference_type, baseType: !532, size: 32)
!1065 = !DISubprogram(name: "load_defaults_file", linkageName: "_ZN8AP_Param18load_defaults_fileEPKcb", scope: !763, file: !34, line: 584, type: !1066, scopeLine: 584, flags: DIFlagPublic | DIFlagPrototyped | DIFlagStaticMember, spFlags: DISPFlagOptimized)
!1066 = !DISubroutineType(types: !1067)
!1067 = !{!10, !273, !10}
!1068 = !DISubprogram(name: "add_default", linkageName: "_ZN8AP_Param11add_defaultEPS_f", scope: !763, file: !34, line: 589, type: !1069, scopeLine: 589, flags: DIFlagProtected | DIFlagPrototyped | DIFlagStaticMember, spFlags: DISPFlagOptimized)
!1069 = !DISubroutineType(types: !1070)
!1070 = !{null, !766, !101}
!1071 = !DISubprogram(name: "check_group_info", linkageName: "_ZN8AP_Param16check_group_infoEPKNS_9GroupInfoEPthh", scope: !763, file: !34, line: 659, type: !1072, scopeLine: 659, flags: DIFlagPrototyped | DIFlagStaticMember, spFlags: DISPFlagOptimized)
!1072 = !DISubroutineType(types: !1073)
!1073 = !{null, !857, !921, !45, !45}
!1074 = !DISubprogram(name: "duplicate_key", linkageName: "_ZN8AP_Param13duplicate_keyEtt", scope: !763, file: !34, line: 661, type: !1075, scopeLine: 661, flags: DIFlagPrototyped | DIFlagStaticMember, spFlags: DISPFlagOptimized)
!1075 = !DISubroutineType(types: !1076)
!1076 = !{!10, !539, !539}
!1077 = !DISubprogram(name: "adjust_group_offset", linkageName: "_ZN8AP_Param19adjust_group_offsetEtRKNS_9GroupInfoERi", scope: !763, file: !34, line: 663, type: !1078, scopeLine: 663, flags: DIFlagPrototyped | DIFlagStaticMember, spFlags: DISPFlagOptimized)
!1078 = !DISubroutineType(types: !1079)
!1079 = !{!10, !539, !1080, !1081}
!1080 = !DIDerivedType(tag: DW_TAG_reference_type, baseType: !761, size: 32)
!1081 = !DIDerivedType(tag: DW_TAG_reference_type, baseType: !123, size: 32)
!1082 = !DISubprogram(name: "get_base", linkageName: "_ZN8AP_Param8get_baseERKNS_4InfoERi", scope: !763, file: !34, line: 664, type: !1083, scopeLine: 664, flags: DIFlagPrototyped | DIFlagStaticMember, spFlags: DISPFlagOptimized)
!1083 = !DISubroutineType(types: !1084)
!1084 = !{!10, !1085, !1081}
!1085 = !DIDerivedType(tag: DW_TAG_reference_type, baseType: !848, size: 32)
!1086 = !DISubprogram(name: "get_group_info", linkageName: "_ZN8AP_Param14get_group_infoERKNS_9GroupInfoE", scope: !763, file: !34, line: 667, type: !1087, scopeLine: 667, flags: DIFlagPrototyped | DIFlagStaticMember, spFlags: DISPFlagOptimized)
!1087 = !DISubroutineType(types: !1088)
!1088 = !{!857, !1080}
!1089 = !DISubprogram(name: "get_group_info", linkageName: "_ZN8AP_Param14get_group_infoERKNS_4InfoE", scope: !763, file: !34, line: 670, type: !1090, scopeLine: 670, flags: DIFlagPrototyped | DIFlagStaticMember, spFlags: DISPFlagOptimized)
!1090 = !DISubroutineType(types: !1091)
!1091 = !{!857, !1085}
!1092 = !DISubprogram(name: "find_var_info_group", linkageName: "_ZNK8AP_Param19find_var_info_groupEPKNS_9GroupInfoEtjhiPjRS2_RNS_12GroupNestingEPh", scope: !763, file: !34, line: 672, type: !1093, scopeLine: 672, flags: DIFlagPrototyped, spFlags: DISPFlagOptimized)
!1093 = !DISubroutineType(types: !1094)
!1094 = !{!847, !905, !857, !539, !102, !45, !123, !1095, !1096, !1097, !1098}
!1095 = !DIDerivedType(tag: DW_TAG_pointer_type, baseType: !102, size: 32)
!1096 = !DIDerivedType(tag: DW_TAG_reference_type, baseType: !857, size: 32)
!1097 = !DIDerivedType(tag: DW_TAG_reference_type, baseType: !909, size: 32)
!1098 = !DIDerivedType(tag: DW_TAG_pointer_type, baseType: !45, size: 32)
!1099 = !DISubprogram(name: "find_var_info", linkageName: "_ZNK8AP_Param13find_var_infoEPjRPKNS_9GroupInfoERNS_12GroupNestingEPh", scope: !763, file: !34, line: 682, type: !1100, scopeLine: 682, flags: DIFlagPrototyped, spFlags: DISPFlagOptimized)
!1100 = !DISubroutineType(types: !1101)
!1101 = !{!847, !905, !1095, !1096, !1097, !1098}
!1102 = !DISubprogram(name: "find_var_info_token", linkageName: "_ZNK8AP_Param19find_var_info_tokenERKNS_10ParamTokenEPjRPKNS_9GroupInfoERNS_12GroupNestingEPh", scope: !763, file: !34, line: 687, type: !1103, scopeLine: 687, flags: DIFlagPrototyped, spFlags: DISPFlagOptimized)
!1103 = !DISubroutineType(types: !1104)
!1104 = !{!847, !905, !913, !1095, !1096, !1097, !1098}
!1105 = !DISubprogram(name: "find_by_header_group", linkageName: "_ZN8AP_Param20find_by_header_groupENS_12Param_headerEPPvtPKNS_9GroupInfoEjhi", scope: !763, file: !34, line: 692, type: !1106, scopeLine: 692, flags: DIFlagPrototyped | DIFlagStaticMember, spFlags: DISPFlagOptimized)
!1106 = !DISubroutineType(types: !1107)
!1107 = !{!847, !1108, !1114, !539, !857, !102, !45, !123}
!1108 = distinct !DICompositeType(tag: DW_TAG_structure_type, name: "Param_header", scope: !763, file: !34, line: 620, size: 32, flags: DIFlagTypePassByValue, elements: !1109, identifier: "_ZTSN8AP_Param12Param_headerE")
!1109 = !{!1110, !1111, !1112, !1113}
!1110 = !DIDerivedType(tag: DW_TAG_member, name: "key_low", scope: !1108, file: !34, line: 622, baseType: !102, size: 8, flags: DIFlagBitField, extraData: i64 0)
!1111 = !DIDerivedType(tag: DW_TAG_member, name: "type", scope: !1108, file: !34, line: 623, baseType: !102, size: 5, offset: 8, flags: DIFlagBitField, extraData: i64 0)
!1112 = !DIDerivedType(tag: DW_TAG_member, name: "key_high", scope: !1108, file: !34, line: 624, baseType: !102, size: 1, offset: 13, flags: DIFlagBitField, extraData: i64 0)
!1113 = !DIDerivedType(tag: DW_TAG_member, name: "group_element", scope: !1108, file: !34, line: 625, baseType: !102, size: 18, offset: 14, flags: DIFlagBitField, extraData: i64 0)
!1114 = !DIDerivedType(tag: DW_TAG_pointer_type, baseType: !453, size: 32)
